ARM GAS  /tmp/ccZiTkxd.s 			page 1


   1              		.cpu cortex-m4
   2              		.arch armv7e-m
   3              		.fpu fpv4-sp-d16
   4              		.eabi_attribute 27, 1
   5              		.eabi_attribute 28, 1
   6              		.eabi_attribute 20, 1
   7              		.eabi_attribute 21, 1
   8              		.eabi_attribute 23, 3
   9              		.eabi_attribute 24, 1
  10              		.eabi_attribute 25, 1
  11              		.eabi_attribute 26, 1
  12              		.eabi_attribute 30, 1
  13              		.eabi_attribute 34, 1
  14              		.eabi_attribute 18, 4
  15              		.file	"m5_app.c"
  16              		.text
  17              	.Ltext0:
  18              		.cfi_sections	.debug_frame
  19              		.section	.text.flash_EDU_LD0,"ax",%progbits
  20              		.align	1
  21              		.global	flash_EDU_LD0
  22              		.syntax unified
  23              		.thumb
  24              		.thumb_func
  26              	flash_EDU_LD0:
  27              	.LVL0:
  28              	.LFB11:
  29              		.file 1 "src/m5_app.c"
   1:src/m5_app.c  **** /*
   2:src/m5_app.c  ****  * "Copyright (c) 2019 J. W. Bruce ("AUTHOR(S)")"
   3:src/m5_app.c  ****  * All rights reserved.
   4:src/m5_app.c  ****  * (J. W. Bruce, jwbruce_AT_tntech.edu, Tennessee Tech University)
   5:src/m5_app.c  ****  *
   6:src/m5_app.c  ****  * Permission to use, copy, modify, and distribute this software and its
   7:src/m5_app.c  ****  * documentation for any purpose, without fee, and without written agreement is
   8:src/m5_app.c  ****  * hereby granted, provided that the above copyright notice, the following
   9:src/m5_app.c  ****  * two paragraphs and the authors appear in all copies of this software.
  10:src/m5_app.c  ****  *
  11:src/m5_app.c  ****  * IN NO EVENT SHALL THE "AUTHORS" BE LIABLE TO ANY PARTY FOR
  12:src/m5_app.c  ****  * DIRECT, INDIRECT, SPECIAL, INCIDENTAL, OR CONSEQUENTIAL DAMAGES ARISING OUT
  13:src/m5_app.c  ****  * OF THE USE OF THIS SOFTWARE AND ITS DOCUMENTATION, EVEN IF THE "AUTHORS"
  14:src/m5_app.c  ****  * HAS BEEN ADVISED OF THE POSSIBILITY OF SUCH DAMAGE.
  15:src/m5_app.c  ****  *
  16:src/m5_app.c  ****  * THE "AUTHORS" SPECIFICALLY DISCLAIMS ANY WARRANTIES,
  17:src/m5_app.c  ****  * INCLUDING, BUT NOT LIMITED TO, THE IMPLIED WARRANTIES OF MERCHANTABILITY
  18:src/m5_app.c  ****  * AND FITNESS FOR A PARTICULAR PURPOSE.  THE SOFTWARE PROVIDED HEREUNDER IS
  19:src/m5_app.c  ****  * ON AN "AS IS" BASIS, AND THE "AUTHORS" HAS NO OBLIGATION TO
  20:src/m5_app.c  ****  * PROVIDE MAINTENANCE, SUPPORT, UPDATES, ENHANCEMENTS, OR MODIFICATIONS."
  21:src/m5_app.c  ****  *
  22:src/m5_app.c  ****  * Please maintain this header in its entirety when copying/modifying
  23:src/m5_app.c  ****  * these files.
  24:src/m5_app.c  ****  *
  25:src/m5_app.c  ****  *
  26:src/m5_app.c  ****  */
  27:src/m5_app.c  **** 
  28:src/m5_app.c  **** // #define ESOS_USE_IRQS
  29:src/m5_app.c  **** 
ARM GAS  /tmp/ccZiTkxd.s 			page 2


  30:src/m5_app.c  **** // INCLUDEs go here  (First include the main esos.h file)
  31:src/m5_app.c  **** //      After that, the user can include what they need
  32:src/m5_app.c  **** #include "esos.h"
  33:src/m5_app.c  **** #include "m5.h"
  34:src/m5_app.c  **** #include "ptb.h"
  35:src/m5_app.c  **** #include "circularBuffer.h"
  36:src/m5_app.c  **** #include "user_app.h"
  37:src/m5_app.c  **** #include <ctype.h>
  38:src/m5_app.c  **** #include <string.h>
  39:src/m5_app.c  **** 
  40:src/m5_app.c  **** #ifdef __linux
  41:src/m5_app.c  **** #include    "esos_pc.h"
  42:src/m5_app.c  **** #include    "esos_pc_stdio.h"
  43:src/m5_app.c  **** // INCLUDE these so our printf and other PC hacks work
  44:src/m5_app.c  **** #include <stdio.h>
  45:src/m5_app.c  **** #include <sys/select.h>
  46:src/m5_app.c  **** #include <termios.h>
  47:src/m5_app.c  **** #include <unistd.h>
  48:src/m5_app.c  **** #include <string.h>
  49:src/m5_app.c  **** #else
  50:src/m5_app.c  **** #include    "esos_stm32l4.h"
  51:src/m5_app.c  **** #include    "esos_stm32l4_rs232.h"
  52:src/m5_app.c  **** #endif
  53:src/m5_app.c  **** 
  54:src/m5_app.c  **** 
  55:src/m5_app.c  **** // DEFINEs go here
  56:src/m5_app.c  **** 
  57:src/m5_app.c  **** /*
  58:src/m5_app.c  ****  * PROTOTYPEs go here
  59:src/m5_app.c  ****  *
  60:src/m5_app.c  ****  */
  61:src/m5_app.c  **** void __user_init_hw( void );
  62:src/m5_app.c  **** 
  63:src/m5_app.c  **** 
  64:src/m5_app.c  **** // GLOBALs go here
  65:src/m5_app.c  **** //  Generally, the user-created semaphores will be defined/allocated here
  66:src/m5_app.c  **** uint8_t key[] = "BOLDFEARLESSCONFIDENT";
  67:src/m5_app.c  **** uint8_t key2[] = "BOLDFEARLESSCONFIDENT";
  68:src/m5_app.c  **** bool state = false;
  69:src/m5_app.c  **** 
  70:src/m5_app.c  **** // timer globals
  71:src/m5_app.c  **** uint32_t timer2Period = 1000;
  72:src/m5_app.c  **** uint32_t edub_LD0_period = 1000;
  73:src/m5_app.c  **** uint32_t edub_LD1_period = 1000;
  74:src/m5_app.c  **** uint32_t edub_LD2_period = 1000;
  75:src/m5_app.c  **** uint32_t edub_LD3_period = 1000;
  76:src/m5_app.c  **** uint32_t sum[5][4];
  77:src/m5_app.c  **** uint8_t i;
  78:src/m5_app.c  **** uint8_t startup = 0;
  79:src/m5_app.c  **** 
  80:src/m5_app.c  **** 
  81:src/m5_app.c  **** #ifdef _linux
  82:src/m5_app.c  **** /*
  83:src/m5_app.c  ****  * Simulate the timer ISR found on a MCU
  84:src/m5_app.c  ****  *   The PC doesn't have a timer ISR, so this task will periodically
  85:src/m5_app.c  ****  *   call the timer services callback instead.
  86:src/m5_app.c  ****  *   USED ONLY FOR DEVELOPMENT AND TESTING ON PC.
ARM GAS  /tmp/ccZiTkxd.s 			page 3


  87:src/m5_app.c  ****  *   Real MCU hardware doesn't need this task
  88:src/m5_app.c  **** */
  89:src/m5_app.c  **** ESOS_USER_TASK( __simulated_isr ) {
  90:src/m5_app.c  ****   ESOS_TASK_BEGIN();
  91:src/m5_app.c  ****   while (TRUE) {
  92:src/m5_app.c  ****     // call the ESOS timer services callback just like a real H/W ISR would
  93:src/m5_app.c  ****     __esos_tmrSvcsExecute();
  94:src/m5_app.c  ****     ESOS_TASK_WAIT_TICKS( 1 );
  95:src/m5_app.c  **** 
  96:src/m5_app.c  ****   } // endof while(TRUE)
  97:src/m5_app.c  ****   ESOS_TASK_END();
  98:src/m5_app.c  **** } // end child_task
  99:src/m5_app.c  **** #endif
 100:src/m5_app.c  **** 
 101:src/m5_app.c  **** //Flashes the PTB LED0 
 102:src/m5_app.c  **** ESOS_USER_TASK(flash_EDU_LD0)
 103:src/m5_app.c  **** {
  30              		.loc 1 103 1 view -0
  31              		.cfi_startproc
  32              		@ args = 0, pretend = 0, frame = 0
  33              		@ frame_needed = 0, uses_anonymous_args = 0
  34              		.loc 1 103 1 is_stmt 0 view .LVU1
  35 0000 38B5     		push	{r3, r4, r5, lr}
  36              	.LCFI0:
  37              		.cfi_def_cfa_offset 16
  38              		.cfi_offset 3, -16
  39              		.cfi_offset 4, -12
  40              		.cfi_offset 5, -8
  41              		.cfi_offset 14, -4
  42 0002 0446     		mov	r4, r0
 104:src/m5_app.c  ****     ESOS_TASK_BEGIN();
  43              		.loc 1 104 5 is_stmt 1 view .LVU2
  44 0004 8378     		ldrb	r3, [r0, #2]	@ zero_extendqisi2
  45 0006 63F07F03 		orn	r3, r3, #127
  46 000a 8370     		strb	r3, [r0, #2]
  47              		.loc 1 104 5 view .LVU3
  48 000c 0388     		ldrh	r3, [r0]
  49 000e A3B1     		cbz	r3, .L2
  50 0010 6C2B     		cmp	r3, #108
  51 0012 20D0     		beq	.L3
 105:src/m5_app.c  ****     while (TRUE)
 106:src/m5_app.c  ****     {
 107:src/m5_app.c  ****         gpio_toggle(EDUB_LD0_PORT, EDUB_LD0_PIN);
 108:src/m5_app.c  ****         ESOS_TASK_WAIT_TICKS(edub_LD0_period / 2);
 109:src/m5_app.c  ****     }
 110:src/m5_app.c  ****     ESOS_TASK_END();
  52              		.loc 1 110 5 view .LVU4
  53              		.loc 1 110 5 view .LVU5
  54 0014 0823     		movs	r3, #8
  55 0016 8370     		strb	r3, [r0, #2]
  56              		.loc 1 110 5 view .LVU6
  57 0018 0023     		movs	r3, #0
  58 001a 0380     		strh	r3, [r0]	@ movhi
  59              		.loc 1 110 5 view .LVU7
  60              		.loc 1 110 5 view .LVU8
  61              		.loc 1 110 5 view .LVU9
  62 001c 0325     		movs	r5, #3
ARM GAS  /tmp/ccZiTkxd.s 			page 4


  63              	.LVL1:
  64              	.L6:
  65              		.loc 1 110 20 discriminator 1 view .LVU10
 111:src/m5_app.c  **** }//end flash_EDU_LD0
  66              		.loc 1 111 1 is_stmt 0 discriminator 1 view .LVU11
  67 001e 2846     		mov	r0, r5
  68 0020 38BD     		pop	{r3, r4, r5, pc}
  69              	.LVL2:
  70              	.L11:
 108:src/m5_app.c  ****     }
  71              		.loc 1 108 9 is_stmt 1 discriminator 2 view .LVU12
  72 0022 0423     		movs	r3, #4
  73 0024 A370     		strb	r3, [r4, #2]
 108:src/m5_app.c  ****     }
  74              		.loc 1 108 9 discriminator 2 view .LVU13
  75 0026 0325     		movs	r5, #3
  76 0028 F9E7     		b	.L6
  77              	.L7:
 108:src/m5_app.c  ****     }
  78              		.loc 1 108 9 discriminator 5 view .LVU14
  79 002a A378     		ldrb	r3, [r4, #2]	@ zero_extendqisi2
  80 002c 43F00103 		orr	r3, r3, #1
  81 0030 A370     		strb	r3, [r4, #2]
  82              	.L8:
 108:src/m5_app.c  ****     }
  83              		.loc 1 108 9 discriminator 7 view .LVU15
  84 0032 A378     		ldrb	r3, [r4, #2]	@ zero_extendqisi2
  85 0034 13F0010F 		tst	r3, #1
  86 0038 F1D1     		bne	.L6
  87              	.L2:
 104:src/m5_app.c  ****     while (TRUE)
  88              		.loc 1 104 22 discriminator 1 view .LVU16
 105:src/m5_app.c  ****     {
  89              		.loc 1 105 5 discriminator 1 view .LVU17
 107:src/m5_app.c  ****         ESOS_TASK_WAIT_TICKS(edub_LD0_period / 2);
  90              		.loc 1 107 9 discriminator 1 view .LVU18
  91 003a 0221     		movs	r1, #2
  92 003c 4FF09040 		mov	r0, #1207959552
  93 0040 FFF7FEFF 		bl	gpio_toggle
  94              	.LVL3:
 108:src/m5_app.c  ****     }
  95              		.loc 1 108 9 discriminator 1 view .LVU19
 108:src/m5_app.c  ****     }
  96              		.loc 1 108 9 discriminator 1 view .LVU20
  97 0044 FFF7FEFF 		bl	__esos_hw_GetSystemTickCount
  98              	.LVL4:
  99 0048 A060     		str	r0, [r4, #8]
 108:src/m5_app.c  ****     }
 100              		.loc 1 108 9 discriminator 1 view .LVU21
 101 004a 0A4B     		ldr	r3, .L12
 102 004c 1B68     		ldr	r3, [r3]
 103 004e 5B08     		lsrs	r3, r3, #1
 104 0050 E360     		str	r3, [r4, #12]
 108:src/m5_app.c  ****     }
 105              		.loc 1 108 9 discriminator 1 view .LVU22
 108:src/m5_app.c  ****     }
 106              		.loc 1 108 9 discriminator 1 view .LVU23
ARM GAS  /tmp/ccZiTkxd.s 			page 5


 107 0052 6C23     		movs	r3, #108
 108 0054 2380     		strh	r3, [r4]	@ movhi
 109              	.L3:
 108:src/m5_app.c  ****     }
 110              		.loc 1 108 9 discriminator 1 view .LVU24
 108:src/m5_app.c  ****     }
 111              		.loc 1 108 9 discriminator 1 view .LVU25
 112 0056 A078     		ldrb	r0, [r4, #2]	@ zero_extendqisi2
 113 0058 10F00405 		ands	r5, r0, #4
 114 005c E1D1     		bne	.L11
 108:src/m5_app.c  ****     }
 115              		.loc 1 108 9 discriminator 3 view .LVU26
 116 005e E168     		ldr	r1, [r4, #12]
 117 0060 A068     		ldr	r0, [r4, #8]
 118 0062 FFF7FEFF 		bl	__esos_hasTickDurationPassed
 119              	.LVL5:
 120 0066 0028     		cmp	r0, #0
 121 0068 DFD0     		beq	.L7
 108:src/m5_app.c  ****     }
 122              		.loc 1 108 9 discriminator 4 view .LVU27
 123 006a A378     		ldrb	r3, [r4, #2]	@ zero_extendqisi2
 124 006c 23F00103 		bic	r3, r3, #1
 125 0070 A370     		strb	r3, [r4, #2]
 126 0072 DEE7     		b	.L8
 127              	.L13:
 128              		.align	2
 129              	.L12:
 130 0074 00000000 		.word	.LANCHOR0
 131              		.cfi_endproc
 132              	.LFE11:
 134              		.section	.text.flash_EDU_LD1,"ax",%progbits
 135              		.align	1
 136              		.global	flash_EDU_LD1
 137              		.syntax unified
 138              		.thumb
 139              		.thumb_func
 141              	flash_EDU_LD1:
 142              	.LVL6:
 143              	.LFB12:
 112:src/m5_app.c  **** 
 113:src/m5_app.c  **** //Flashes the PTB LED1
 114:src/m5_app.c  **** ESOS_USER_TASK(flash_EDU_LD1)
 115:src/m5_app.c  **** {
 144              		.loc 1 115 1 view -0
 145              		.cfi_startproc
 146              		@ args = 0, pretend = 0, frame = 0
 147              		@ frame_needed = 0, uses_anonymous_args = 0
 148              		.loc 1 115 1 is_stmt 0 view .LVU29
 149 0000 38B5     		push	{r3, r4, r5, lr}
 150              	.LCFI1:
 151              		.cfi_def_cfa_offset 16
 152              		.cfi_offset 3, -16
 153              		.cfi_offset 4, -12
 154              		.cfi_offset 5, -8
 155              		.cfi_offset 14, -4
 156 0002 0446     		mov	r4, r0
 116:src/m5_app.c  ****     ESOS_TASK_BEGIN();
ARM GAS  /tmp/ccZiTkxd.s 			page 6


 157              		.loc 1 116 5 is_stmt 1 view .LVU30
 158 0004 8378     		ldrb	r3, [r0, #2]	@ zero_extendqisi2
 159 0006 63F07F03 		orn	r3, r3, #127
 160 000a 8370     		strb	r3, [r0, #2]
 161              		.loc 1 116 5 view .LVU31
 162 000c 0388     		ldrh	r3, [r0]
 163 000e A3B1     		cbz	r3, .L15
 164 0010 782B     		cmp	r3, #120
 165 0012 20D0     		beq	.L16
 117:src/m5_app.c  ****     while (TRUE)
 118:src/m5_app.c  ****     {
 119:src/m5_app.c  ****         gpio_toggle(EDUB_LD1_PORT, EDUB_LD1_PIN);
 120:src/m5_app.c  ****         ESOS_TASK_WAIT_TICKS(edub_LD1_period / 2);
 121:src/m5_app.c  ****     }
 122:src/m5_app.c  ****     ESOS_TASK_END();
 166              		.loc 1 122 5 view .LVU32
 167              		.loc 1 122 5 view .LVU33
 168 0014 0823     		movs	r3, #8
 169 0016 8370     		strb	r3, [r0, #2]
 170              		.loc 1 122 5 view .LVU34
 171 0018 0023     		movs	r3, #0
 172 001a 0380     		strh	r3, [r0]	@ movhi
 173              		.loc 1 122 5 view .LVU35
 174              		.loc 1 122 5 view .LVU36
 175              		.loc 1 122 5 view .LVU37
 176 001c 0325     		movs	r5, #3
 177              	.LVL7:
 178              	.L19:
 179              		.loc 1 122 20 discriminator 1 view .LVU38
 123:src/m5_app.c  **** }//end flash_EDU_LD1
 180              		.loc 1 123 1 is_stmt 0 discriminator 1 view .LVU39
 181 001e 2846     		mov	r0, r5
 182 0020 38BD     		pop	{r3, r4, r5, pc}
 183              	.LVL8:
 184              	.L24:
 120:src/m5_app.c  ****     }
 185              		.loc 1 120 9 is_stmt 1 discriminator 2 view .LVU40
 186 0022 0423     		movs	r3, #4
 187 0024 A370     		strb	r3, [r4, #2]
 120:src/m5_app.c  ****     }
 188              		.loc 1 120 9 discriminator 2 view .LVU41
 189 0026 0325     		movs	r5, #3
 190 0028 F9E7     		b	.L19
 191              	.L20:
 120:src/m5_app.c  ****     }
 192              		.loc 1 120 9 discriminator 5 view .LVU42
 193 002a A378     		ldrb	r3, [r4, #2]	@ zero_extendqisi2
 194 002c 43F00103 		orr	r3, r3, #1
 195 0030 A370     		strb	r3, [r4, #2]
 196              	.L21:
 120:src/m5_app.c  ****     }
 197              		.loc 1 120 9 discriminator 7 view .LVU43
 198 0032 A378     		ldrb	r3, [r4, #2]	@ zero_extendqisi2
 199 0034 13F0010F 		tst	r3, #1
 200 0038 F1D1     		bne	.L19
 201              	.L15:
 116:src/m5_app.c  ****     while (TRUE)
ARM GAS  /tmp/ccZiTkxd.s 			page 7


 202              		.loc 1 116 22 discriminator 1 view .LVU44
 117:src/m5_app.c  ****     {
 203              		.loc 1 117 5 discriminator 1 view .LVU45
 119:src/m5_app.c  ****         ESOS_TASK_WAIT_TICKS(edub_LD1_period / 2);
 204              		.loc 1 119 9 discriminator 1 view .LVU46
 205 003a 0121     		movs	r1, #1
 206 003c 4FF09040 		mov	r0, #1207959552
 207 0040 FFF7FEFF 		bl	gpio_toggle
 208              	.LVL9:
 120:src/m5_app.c  ****     }
 209              		.loc 1 120 9 discriminator 1 view .LVU47
 120:src/m5_app.c  ****     }
 210              		.loc 1 120 9 discriminator 1 view .LVU48
 211 0044 FFF7FEFF 		bl	__esos_hw_GetSystemTickCount
 212              	.LVL10:
 213 0048 A060     		str	r0, [r4, #8]
 120:src/m5_app.c  ****     }
 214              		.loc 1 120 9 discriminator 1 view .LVU49
 215 004a 0A4B     		ldr	r3, .L25
 216 004c 1B68     		ldr	r3, [r3]
 217 004e 5B08     		lsrs	r3, r3, #1
 218 0050 E360     		str	r3, [r4, #12]
 120:src/m5_app.c  ****     }
 219              		.loc 1 120 9 discriminator 1 view .LVU50
 120:src/m5_app.c  ****     }
 220              		.loc 1 120 9 discriminator 1 view .LVU51
 221 0052 7823     		movs	r3, #120
 222 0054 2380     		strh	r3, [r4]	@ movhi
 223              	.L16:
 120:src/m5_app.c  ****     }
 224              		.loc 1 120 9 discriminator 1 view .LVU52
 120:src/m5_app.c  ****     }
 225              		.loc 1 120 9 discriminator 1 view .LVU53
 226 0056 A078     		ldrb	r0, [r4, #2]	@ zero_extendqisi2
 227 0058 10F00405 		ands	r5, r0, #4
 228 005c E1D1     		bne	.L24
 120:src/m5_app.c  ****     }
 229              		.loc 1 120 9 discriminator 3 view .LVU54
 230 005e E168     		ldr	r1, [r4, #12]
 231 0060 A068     		ldr	r0, [r4, #8]
 232 0062 FFF7FEFF 		bl	__esos_hasTickDurationPassed
 233              	.LVL11:
 234 0066 0028     		cmp	r0, #0
 235 0068 DFD0     		beq	.L20
 120:src/m5_app.c  ****     }
 236              		.loc 1 120 9 discriminator 4 view .LVU55
 237 006a A378     		ldrb	r3, [r4, #2]	@ zero_extendqisi2
 238 006c 23F00103 		bic	r3, r3, #1
 239 0070 A370     		strb	r3, [r4, #2]
 240 0072 DEE7     		b	.L21
 241              	.L26:
 242              		.align	2
 243              	.L25:
 244 0074 00000000 		.word	.LANCHOR1
 245              		.cfi_endproc
 246              	.LFE12:
 248              		.section	.text.flash_EDU_LD2,"ax",%progbits
ARM GAS  /tmp/ccZiTkxd.s 			page 8


 249              		.align	1
 250              		.global	flash_EDU_LD2
 251              		.syntax unified
 252              		.thumb
 253              		.thumb_func
 255              	flash_EDU_LD2:
 256              	.LVL12:
 257              	.LFB13:
 124:src/m5_app.c  **** 
 125:src/m5_app.c  **** //Flashes the PTB LED2
 126:src/m5_app.c  **** ESOS_USER_TASK(flash_EDU_LD2)
 127:src/m5_app.c  **** {
 258              		.loc 1 127 1 view -0
 259              		.cfi_startproc
 260              		@ args = 0, pretend = 0, frame = 0
 261              		@ frame_needed = 0, uses_anonymous_args = 0
 262              		.loc 1 127 1 is_stmt 0 view .LVU57
 263 0000 38B5     		push	{r3, r4, r5, lr}
 264              	.LCFI2:
 265              		.cfi_def_cfa_offset 16
 266              		.cfi_offset 3, -16
 267              		.cfi_offset 4, -12
 268              		.cfi_offset 5, -8
 269              		.cfi_offset 14, -4
 270 0002 0446     		mov	r4, r0
 128:src/m5_app.c  ****     ESOS_TASK_BEGIN();
 271              		.loc 1 128 5 is_stmt 1 view .LVU58
 272 0004 8378     		ldrb	r3, [r0, #2]	@ zero_extendqisi2
 273 0006 63F07F03 		orn	r3, r3, #127
 274 000a 8370     		strb	r3, [r0, #2]
 275              		.loc 1 128 5 view .LVU59
 276 000c 0388     		ldrh	r3, [r0]
 277 000e A3B1     		cbz	r3, .L28
 278 0010 842B     		cmp	r3, #132
 279 0012 1FD0     		beq	.L29
 129:src/m5_app.c  ****     while (TRUE)
 130:src/m5_app.c  ****     {
 131:src/m5_app.c  ****         gpio_toggle(EDUB_LD2_PORT, EDUB_LD2_PIN);
 132:src/m5_app.c  ****         ESOS_TASK_WAIT_TICKS(edub_LD2_period / 2);
 133:src/m5_app.c  ****     } 
 134:src/m5_app.c  ****     ESOS_TASK_END();
 280              		.loc 1 134 5 view .LVU60
 281              		.loc 1 134 5 view .LVU61
 282 0014 0823     		movs	r3, #8
 283 0016 8370     		strb	r3, [r0, #2]
 284              		.loc 1 134 5 view .LVU62
 285 0018 0023     		movs	r3, #0
 286 001a 0380     		strh	r3, [r0]	@ movhi
 287              		.loc 1 134 5 view .LVU63
 288              		.loc 1 134 5 view .LVU64
 289              		.loc 1 134 5 view .LVU65
 290 001c 0325     		movs	r5, #3
 291              	.LVL13:
 292              	.L32:
 293              		.loc 1 134 20 discriminator 1 view .LVU66
 135:src/m5_app.c  **** }//end flash_EDU_LD2
 294              		.loc 1 135 1 is_stmt 0 discriminator 1 view .LVU67
ARM GAS  /tmp/ccZiTkxd.s 			page 9


 295 001e 2846     		mov	r0, r5
 296 0020 38BD     		pop	{r3, r4, r5, pc}
 297              	.LVL14:
 298              	.L37:
 132:src/m5_app.c  ****     } 
 299              		.loc 1 132 9 is_stmt 1 discriminator 2 view .LVU68
 300 0022 0423     		movs	r3, #4
 301 0024 A370     		strb	r3, [r4, #2]
 132:src/m5_app.c  ****     } 
 302              		.loc 1 132 9 discriminator 2 view .LVU69
 303 0026 0325     		movs	r5, #3
 304 0028 F9E7     		b	.L32
 305              	.L33:
 132:src/m5_app.c  ****     } 
 306              		.loc 1 132 9 discriminator 5 view .LVU70
 307 002a A378     		ldrb	r3, [r4, #2]	@ zero_extendqisi2
 308 002c 43F00103 		orr	r3, r3, #1
 309 0030 A370     		strb	r3, [r4, #2]
 310              	.L34:
 132:src/m5_app.c  ****     } 
 311              		.loc 1 132 9 discriminator 7 view .LVU71
 312 0032 A378     		ldrb	r3, [r4, #2]	@ zero_extendqisi2
 313 0034 13F0010F 		tst	r3, #1
 314 0038 F1D1     		bne	.L32
 315              	.L28:
 128:src/m5_app.c  ****     while (TRUE)
 316              		.loc 1 128 22 discriminator 1 view .LVU72
 129:src/m5_app.c  ****     {
 317              		.loc 1 129 5 discriminator 1 view .LVU73
 131:src/m5_app.c  ****         ESOS_TASK_WAIT_TICKS(edub_LD2_period / 2);
 318              		.loc 1 131 9 discriminator 1 view .LVU74
 319 003a 8021     		movs	r1, #128
 320 003c 0D48     		ldr	r0, .L38
 321 003e FFF7FEFF 		bl	gpio_toggle
 322              	.LVL15:
 132:src/m5_app.c  ****     } 
 323              		.loc 1 132 9 discriminator 1 view .LVU75
 132:src/m5_app.c  ****     } 
 324              		.loc 1 132 9 discriminator 1 view .LVU76
 325 0042 FFF7FEFF 		bl	__esos_hw_GetSystemTickCount
 326              	.LVL16:
 327 0046 A060     		str	r0, [r4, #8]
 132:src/m5_app.c  ****     } 
 328              		.loc 1 132 9 discriminator 1 view .LVU77
 329 0048 0B4B     		ldr	r3, .L38+4
 330 004a 1B68     		ldr	r3, [r3]
 331 004c 5B08     		lsrs	r3, r3, #1
 332 004e E360     		str	r3, [r4, #12]
 132:src/m5_app.c  ****     } 
 333              		.loc 1 132 9 discriminator 1 view .LVU78
 132:src/m5_app.c  ****     } 
 334              		.loc 1 132 9 discriminator 1 view .LVU79
 335 0050 8423     		movs	r3, #132
 336 0052 2380     		strh	r3, [r4]	@ movhi
 337              	.L29:
 132:src/m5_app.c  ****     } 
 338              		.loc 1 132 9 discriminator 1 view .LVU80
ARM GAS  /tmp/ccZiTkxd.s 			page 10


 132:src/m5_app.c  ****     } 
 339              		.loc 1 132 9 discriminator 1 view .LVU81
 340 0054 A078     		ldrb	r0, [r4, #2]	@ zero_extendqisi2
 341 0056 10F00405 		ands	r5, r0, #4
 342 005a E2D1     		bne	.L37
 132:src/m5_app.c  ****     } 
 343              		.loc 1 132 9 discriminator 3 view .LVU82
 344 005c E168     		ldr	r1, [r4, #12]
 345 005e A068     		ldr	r0, [r4, #8]
 346 0060 FFF7FEFF 		bl	__esos_hasTickDurationPassed
 347              	.LVL17:
 348 0064 0028     		cmp	r0, #0
 349 0066 E0D0     		beq	.L33
 132:src/m5_app.c  ****     } 
 350              		.loc 1 132 9 discriminator 4 view .LVU83
 351 0068 A378     		ldrb	r3, [r4, #2]	@ zero_extendqisi2
 352 006a 23F00103 		bic	r3, r3, #1
 353 006e A370     		strb	r3, [r4, #2]
 354 0070 DFE7     		b	.L34
 355              	.L39:
 356 0072 00BF     		.align	2
 357              	.L38:
 358 0074 00080048 		.word	1207961600
 359 0078 00000000 		.word	.LANCHOR2
 360              		.cfi_endproc
 361              	.LFE13:
 363              		.section	.text.flash_EDU_LD3,"ax",%progbits
 364              		.align	1
 365              		.global	flash_EDU_LD3
 366              		.syntax unified
 367              		.thumb
 368              		.thumb_func
 370              	flash_EDU_LD3:
 371              	.LVL18:
 372              	.LFB14:
 136:src/m5_app.c  **** 
 137:src/m5_app.c  **** //Flashes the PTB LED3
 138:src/m5_app.c  **** ESOS_USER_TASK(flash_EDU_LD3)
 139:src/m5_app.c  **** {
 373              		.loc 1 139 1 view -0
 374              		.cfi_startproc
 375              		@ args = 0, pretend = 0, frame = 0
 376              		@ frame_needed = 0, uses_anonymous_args = 0
 377              		.loc 1 139 1 is_stmt 0 view .LVU85
 378 0000 38B5     		push	{r3, r4, r5, lr}
 379              	.LCFI3:
 380              		.cfi_def_cfa_offset 16
 381              		.cfi_offset 3, -16
 382              		.cfi_offset 4, -12
 383              		.cfi_offset 5, -8
 384              		.cfi_offset 14, -4
 385 0002 0446     		mov	r4, r0
 140:src/m5_app.c  ****     ESOS_TASK_BEGIN();
 386              		.loc 1 140 5 is_stmt 1 view .LVU86
 387 0004 8378     		ldrb	r3, [r0, #2]	@ zero_extendqisi2
 388 0006 63F07F03 		orn	r3, r3, #127
 389 000a 8370     		strb	r3, [r0, #2]
ARM GAS  /tmp/ccZiTkxd.s 			page 11


 390              		.loc 1 140 5 view .LVU87
 391 000c 0388     		ldrh	r3, [r0]
 392 000e A3B1     		cbz	r3, .L41
 393 0010 912B     		cmp	r3, #145
 394 0012 20D0     		beq	.L42
 141:src/m5_app.c  ****     while (TRUE)
 142:src/m5_app.c  ****     {
 143:src/m5_app.c  ****         EDUB_LD3_TOGGLE();
 144:src/m5_app.c  ****         //gpio_toggle(EDUB_LD3_PORT, EDUB_LD3_PIN);
 145:src/m5_app.c  ****         ESOS_TASK_WAIT_TICKS(edub_LD3_period / 2);
 146:src/m5_app.c  ****     } 
 147:src/m5_app.c  ****     ESOS_TASK_END();
 395              		.loc 1 147 5 view .LVU88
 396              		.loc 1 147 5 view .LVU89
 397 0014 0823     		movs	r3, #8
 398 0016 8370     		strb	r3, [r0, #2]
 399              		.loc 1 147 5 view .LVU90
 400 0018 0023     		movs	r3, #0
 401 001a 0380     		strh	r3, [r0]	@ movhi
 402              		.loc 1 147 5 view .LVU91
 403              		.loc 1 147 5 view .LVU92
 404              		.loc 1 147 5 view .LVU93
 405 001c 0325     		movs	r5, #3
 406              	.LVL19:
 407              	.L45:
 408              		.loc 1 147 20 discriminator 1 view .LVU94
 148:src/m5_app.c  **** }//end flash_EDU_LD3
 409              		.loc 1 148 1 is_stmt 0 discriminator 1 view .LVU95
 410 001e 2846     		mov	r0, r5
 411 0020 38BD     		pop	{r3, r4, r5, pc}
 412              	.LVL20:
 413              	.L50:
 145:src/m5_app.c  ****     } 
 414              		.loc 1 145 9 is_stmt 1 discriminator 2 view .LVU96
 415 0022 0423     		movs	r3, #4
 416 0024 A370     		strb	r3, [r4, #2]
 145:src/m5_app.c  ****     } 
 417              		.loc 1 145 9 discriminator 2 view .LVU97
 418 0026 0325     		movs	r5, #3
 419 0028 F9E7     		b	.L45
 420              	.L46:
 145:src/m5_app.c  ****     } 
 421              		.loc 1 145 9 discriminator 5 view .LVU98
 422 002a A378     		ldrb	r3, [r4, #2]	@ zero_extendqisi2
 423 002c 43F00103 		orr	r3, r3, #1
 424 0030 A370     		strb	r3, [r4, #2]
 425              	.L47:
 145:src/m5_app.c  ****     } 
 426              		.loc 1 145 9 discriminator 7 view .LVU99
 427 0032 A378     		ldrb	r3, [r4, #2]	@ zero_extendqisi2
 428 0034 13F0010F 		tst	r3, #1
 429 0038 F1D1     		bne	.L45
 430              	.L41:
 140:src/m5_app.c  ****     while (TRUE)
 431              		.loc 1 140 22 discriminator 1 view .LVU100
 141:src/m5_app.c  ****     {
 432              		.loc 1 141 5 discriminator 1 view .LVU101
ARM GAS  /tmp/ccZiTkxd.s 			page 12


 143:src/m5_app.c  ****         //gpio_toggle(EDUB_LD3_PORT, EDUB_LD3_PIN);
 433              		.loc 1 143 9 discriminator 1 view .LVU102
 434 003a 4FF48071 		mov	r1, #256
 435 003e 0D48     		ldr	r0, .L51
 436 0040 FFF7FEFF 		bl	gpio_toggle
 437              	.LVL21:
 145:src/m5_app.c  ****     } 
 438              		.loc 1 145 9 discriminator 1 view .LVU103
 145:src/m5_app.c  ****     } 
 439              		.loc 1 145 9 discriminator 1 view .LVU104
 440 0044 FFF7FEFF 		bl	__esos_hw_GetSystemTickCount
 441              	.LVL22:
 442 0048 A060     		str	r0, [r4, #8]
 145:src/m5_app.c  ****     } 
 443              		.loc 1 145 9 discriminator 1 view .LVU105
 444 004a 0B4B     		ldr	r3, .L51+4
 445 004c 1B68     		ldr	r3, [r3]
 446 004e 5B08     		lsrs	r3, r3, #1
 447 0050 E360     		str	r3, [r4, #12]
 145:src/m5_app.c  ****     } 
 448              		.loc 1 145 9 discriminator 1 view .LVU106
 145:src/m5_app.c  ****     } 
 449              		.loc 1 145 9 discriminator 1 view .LVU107
 450 0052 9123     		movs	r3, #145
 451 0054 2380     		strh	r3, [r4]	@ movhi
 452              	.L42:
 145:src/m5_app.c  ****     } 
 453              		.loc 1 145 9 discriminator 1 view .LVU108
 145:src/m5_app.c  ****     } 
 454              		.loc 1 145 9 discriminator 1 view .LVU109
 455 0056 A078     		ldrb	r0, [r4, #2]	@ zero_extendqisi2
 456 0058 10F00405 		ands	r5, r0, #4
 457 005c E1D1     		bne	.L50
 145:src/m5_app.c  ****     } 
 458              		.loc 1 145 9 discriminator 3 view .LVU110
 459 005e E168     		ldr	r1, [r4, #12]
 460 0060 A068     		ldr	r0, [r4, #8]
 461 0062 FFF7FEFF 		bl	__esos_hasTickDurationPassed
 462              	.LVL23:
 463 0066 0028     		cmp	r0, #0
 464 0068 DFD0     		beq	.L46
 145:src/m5_app.c  ****     } 
 465              		.loc 1 145 9 discriminator 4 view .LVU111
 466 006a A378     		ldrb	r3, [r4, #2]	@ zero_extendqisi2
 467 006c 23F00103 		bic	r3, r3, #1
 468 0070 A370     		strb	r3, [r4, #2]
 469 0072 DEE7     		b	.L47
 470              	.L52:
 471              		.align	2
 472              	.L51:
 473 0074 00080048 		.word	1207961600
 474 0078 00000000 		.word	.LANCHOR3
 475              		.cfi_endproc
 476              	.LFE14:
 478              		.section	.text.flash_LED,"ax",%progbits
 479              		.align	1
 480              		.global	flash_LED
ARM GAS  /tmp/ccZiTkxd.s 			page 13


 481              		.syntax unified
 482              		.thumb
 483              		.thumb_func
 485              	flash_LED:
 486              	.LVL24:
 487              	.LFB15:
 149:src/m5_app.c  **** 
 150:src/m5_app.c  **** // Flashes the onboard LED to act as a "heartbeat"
 151:src/m5_app.c  **** ESOS_USER_TASK(flash_LED) { //AKA LED 4
 488              		.loc 1 151 27 view -0
 489              		.cfi_startproc
 490              		@ args = 0, pretend = 0, frame = 0
 491              		@ frame_needed = 0, uses_anonymous_args = 0
 492              		.loc 1 151 27 is_stmt 0 view .LVU113
 493 0000 38B5     		push	{r3, r4, r5, lr}
 494              	.LCFI4:
 495              		.cfi_def_cfa_offset 16
 496              		.cfi_offset 3, -16
 497              		.cfi_offset 4, -12
 498              		.cfi_offset 5, -8
 499              		.cfi_offset 14, -4
 500 0002 0446     		mov	r4, r0
 152:src/m5_app.c  ****   ESOS_TASK_BEGIN();
 501              		.loc 1 152 3 is_stmt 1 view .LVU114
 502 0004 8378     		ldrb	r3, [r0, #2]	@ zero_extendqisi2
 503 0006 63F07F03 		orn	r3, r3, #127
 504 000a 8370     		strb	r3, [r0, #2]
 505              		.loc 1 152 3 view .LVU115
 506 000c 0388     		ldrh	r3, [r0]
 507 000e A3B1     		cbz	r3, .L54
 508 0010 9C2B     		cmp	r3, #156
 509 0012 20D0     		beq	.L55
 153:src/m5_app.c  ****   while (TRUE) 
 154:src/m5_app.c  ****   {
 155:src/m5_app.c  ****     gpio_toggle(LD2_PORT,LD2_PIN);
 156:src/m5_app.c  ****     ESOS_TASK_WAIT_TICKS(timer2Period/2)
 157:src/m5_app.c  ****   }
 158:src/m5_app.c  ****   ESOS_TASK_END();
 510              		.loc 1 158 3 view .LVU116
 511              		.loc 1 158 3 view .LVU117
 512 0014 0823     		movs	r3, #8
 513 0016 8370     		strb	r3, [r0, #2]
 514              		.loc 1 158 3 view .LVU118
 515 0018 0023     		movs	r3, #0
 516 001a 0380     		strh	r3, [r0]	@ movhi
 517              		.loc 1 158 3 view .LVU119
 518              		.loc 1 158 3 view .LVU120
 519              		.loc 1 158 3 view .LVU121
 520 001c 0325     		movs	r5, #3
 521              	.LVL25:
 522              	.L58:
 523              		.loc 1 158 18 discriminator 1 view .LVU122
 159:src/m5_app.c  **** } // end flash_LED()
 524              		.loc 1 159 1 is_stmt 0 discriminator 1 view .LVU123
 525 001e 2846     		mov	r0, r5
 526 0020 38BD     		pop	{r3, r4, r5, pc}
 527              	.LVL26:
ARM GAS  /tmp/ccZiTkxd.s 			page 14


 528              	.L63:
 156:src/m5_app.c  ****   }
 529              		.loc 1 156 5 is_stmt 1 discriminator 2 view .LVU124
 530 0022 0423     		movs	r3, #4
 531 0024 A370     		strb	r3, [r4, #2]
 156:src/m5_app.c  ****   }
 532              		.loc 1 156 5 discriminator 2 view .LVU125
 533 0026 0325     		movs	r5, #3
 534 0028 F9E7     		b	.L58
 535              	.L59:
 156:src/m5_app.c  ****   }
 536              		.loc 1 156 5 discriminator 5 view .LVU126
 537 002a A378     		ldrb	r3, [r4, #2]	@ zero_extendqisi2
 538 002c 43F00103 		orr	r3, r3, #1
 539 0030 A370     		strb	r3, [r4, #2]
 540              	.L60:
 156:src/m5_app.c  ****   }
 541              		.loc 1 156 5 discriminator 7 view .LVU127
 542 0032 A378     		ldrb	r3, [r4, #2]	@ zero_extendqisi2
 543 0034 13F0010F 		tst	r3, #1
 544 0038 F1D1     		bne	.L58
 545              	.L54:
 152:src/m5_app.c  ****   while (TRUE) 
 546              		.loc 1 152 20 discriminator 1 view .LVU128
 153:src/m5_app.c  ****   {
 547              		.loc 1 153 3 discriminator 1 view .LVU129
 155:src/m5_app.c  ****     ESOS_TASK_WAIT_TICKS(timer2Period/2)
 548              		.loc 1 155 5 discriminator 1 view .LVU130
 549 003a 2021     		movs	r1, #32
 550 003c 4FF09040 		mov	r0, #1207959552
 551 0040 FFF7FEFF 		bl	gpio_toggle
 552              	.LVL27:
 156:src/m5_app.c  ****   }
 553              		.loc 1 156 5 discriminator 1 view .LVU131
 156:src/m5_app.c  ****   }
 554              		.loc 1 156 5 discriminator 1 view .LVU132
 555 0044 FFF7FEFF 		bl	__esos_hw_GetSystemTickCount
 556              	.LVL28:
 557 0048 A060     		str	r0, [r4, #8]
 156:src/m5_app.c  ****   }
 558              		.loc 1 156 5 discriminator 1 view .LVU133
 559 004a 0A4B     		ldr	r3, .L64
 560 004c 1B68     		ldr	r3, [r3]
 561 004e 5B08     		lsrs	r3, r3, #1
 562 0050 E360     		str	r3, [r4, #12]
 156:src/m5_app.c  ****   }
 563              		.loc 1 156 5 discriminator 1 view .LVU134
 156:src/m5_app.c  ****   }
 564              		.loc 1 156 5 discriminator 1 view .LVU135
 565 0052 9C23     		movs	r3, #156
 566 0054 2380     		strh	r3, [r4]	@ movhi
 567              	.L55:
 156:src/m5_app.c  ****   }
 568              		.loc 1 156 5 discriminator 1 view .LVU136
 156:src/m5_app.c  ****   }
 569              		.loc 1 156 5 discriminator 1 view .LVU137
 570 0056 A078     		ldrb	r0, [r4, #2]	@ zero_extendqisi2
ARM GAS  /tmp/ccZiTkxd.s 			page 15


 571 0058 10F00405 		ands	r5, r0, #4
 572 005c E1D1     		bne	.L63
 156:src/m5_app.c  ****   }
 573              		.loc 1 156 5 discriminator 3 view .LVU138
 574 005e E168     		ldr	r1, [r4, #12]
 575 0060 A068     		ldr	r0, [r4, #8]
 576 0062 FFF7FEFF 		bl	__esos_hasTickDurationPassed
 577              	.LVL29:
 578 0066 0028     		cmp	r0, #0
 579 0068 DFD0     		beq	.L59
 156:src/m5_app.c  ****   }
 580              		.loc 1 156 5 discriminator 4 view .LVU139
 581 006a A378     		ldrb	r3, [r4, #2]	@ zero_extendqisi2
 582 006c 23F00103 		bic	r3, r3, #1
 583 0070 A370     		strb	r3, [r4, #2]
 584 0072 DEE7     		b	.L60
 585              	.L65:
 586              		.align	2
 587              	.L64:
 588 0074 00000000 		.word	.LANCHOR4
 589              		.cfi_endproc
 590              	.LFE15:
 592              		.section	.text.receivToSender,"ax",%progbits
 593              		.align	1
 594              		.global	receivToSender
 595              		.syntax unified
 596              		.thumb
 597              		.thumb_func
 599              	receivToSender:
 600              	.LVL30:
 601              	.LFB16:
 160:src/m5_app.c  **** 
 161:src/m5_app.c  **** 
 162:src/m5_app.c  **** //Main 
 163:src/m5_app.c  **** ESOS_USER_TASK(receivToSender)
 164:src/m5_app.c  **** {
 602              		.loc 1 164 1 view -0
 603              		.cfi_startproc
 604              		@ args = 0, pretend = 0, frame = 0
 605              		@ frame_needed = 0, uses_anonymous_args = 0
 606              		.loc 1 164 1 is_stmt 0 view .LVU141
 607 0000 38B5     		push	{r3, r4, r5, lr}
 608              	.LCFI5:
 609              		.cfi_def_cfa_offset 16
 610              		.cfi_offset 3, -16
 611              		.cfi_offset 4, -12
 612              		.cfi_offset 5, -8
 613              		.cfi_offset 14, -4
 614 0002 0446     		mov	r4, r0
 165:src/m5_app.c  ****   //All needed variables for the various functions
 166:src/m5_app.c  ****   static uint8_t toUpper;
 615              		.loc 1 166 3 is_stmt 1 view .LVU142
 167:src/m5_app.c  ****   static uint8_t encrypt;
 616              		.loc 1 167 3 view .LVU143
 168:src/m5_app.c  ****   static uint8_t decrypt;
 617              		.loc 1 168 3 view .LVU144
 169:src/m5_app.c  ****   static uint8_t chooseLED;
ARM GAS  /tmp/ccZiTkxd.s 			page 16


 618              		.loc 1 169 3 view .LVU145
 170:src/m5_app.c  ****   static uint8_t input;
 619              		.loc 1 170 3 view .LVU146
 171:src/m5_app.c  ****   static uint8_t digit;
 620              		.loc 1 171 3 view .LVU147
 172:src/m5_app.c  **** 
 173:src/m5_app.c  ****   ESOS_TASK_BEGIN();
 621              		.loc 1 173 3 view .LVU148
 622 0004 8378     		ldrb	r3, [r0, #2]	@ zero_extendqisi2
 623 0006 63F07F03 		orn	r3, r3, #127
 624 000a 8370     		strb	r3, [r0, #2]
 625              		.loc 1 173 3 view .LVU149
 626 000c 0388     		ldrh	r3, [r0]
 627 000e 002B     		cmp	r3, #0
 628 0010 00F06587 		beq	.L67
 629 0014 B3F5C47F 		cmp	r3, #392
 630 0018 01F22781 		bhi	.L68
 631 001c BD2B     		cmp	r3, #189
 632 001e C1F02481 		bcc	.L68
 633 0022 BD3B     		subs	r3, r3, #189
 634 0024 CB2B     		cmp	r3, #203
 635 0026 01F22081 		bhi	.L68
 636 002a DFE813F0 		tbh	[pc, r3, lsl #1]
 637              	.L70:
 638 002e E200     		.2byte	(.L107-.L70)/2
 639 0030 FD00     		.2byte	(.L106-.L70)/2
 640 0032 1E09     		.2byte	(.L68-.L70)/2
 641 0034 1E09     		.2byte	(.L68-.L70)/2
 642 0036 1E09     		.2byte	(.L68-.L70)/2
 643 0038 1E09     		.2byte	(.L68-.L70)/2
 644 003a 1E09     		.2byte	(.L68-.L70)/2
 645 003c 1E09     		.2byte	(.L68-.L70)/2
 646 003e 1E09     		.2byte	(.L68-.L70)/2
 647 0040 1E09     		.2byte	(.L68-.L70)/2
 648 0042 1E09     		.2byte	(.L68-.L70)/2
 649 0044 A601     		.2byte	(.L105-.L70)/2
 650 0046 C101     		.2byte	(.L104-.L70)/2
 651 0048 1E09     		.2byte	(.L68-.L70)/2
 652 004a 1E09     		.2byte	(.L68-.L70)/2
 653 004c 1E09     		.2byte	(.L68-.L70)/2
 654 004e 1E09     		.2byte	(.L68-.L70)/2
 655 0050 1E09     		.2byte	(.L68-.L70)/2
 656 0052 1E09     		.2byte	(.L68-.L70)/2
 657 0054 1E09     		.2byte	(.L68-.L70)/2
 658 0056 1E09     		.2byte	(.L68-.L70)/2
 659 0058 1D02     		.2byte	(.L103-.L70)/2
 660 005a 3802     		.2byte	(.L102-.L70)/2
 661 005c 1E09     		.2byte	(.L68-.L70)/2
 662 005e 1E09     		.2byte	(.L68-.L70)/2
 663 0060 1E09     		.2byte	(.L68-.L70)/2
 664 0062 1E09     		.2byte	(.L68-.L70)/2
 665 0064 1E09     		.2byte	(.L68-.L70)/2
 666 0066 1E09     		.2byte	(.L68-.L70)/2
 667 0068 1E09     		.2byte	(.L68-.L70)/2
 668 006a 1E09     		.2byte	(.L68-.L70)/2
 669 006c 1E09     		.2byte	(.L68-.L70)/2
 670 006e 1E09     		.2byte	(.L68-.L70)/2
ARM GAS  /tmp/ccZiTkxd.s 			page 17


 671 0070 1E09     		.2byte	(.L68-.L70)/2
 672 0072 B302     		.2byte	(.L101-.L70)/2
 673 0074 CE02     		.2byte	(.L100-.L70)/2
 674 0076 1E09     		.2byte	(.L68-.L70)/2
 675 0078 1E09     		.2byte	(.L68-.L70)/2
 676 007a 1E09     		.2byte	(.L68-.L70)/2
 677 007c 1E09     		.2byte	(.L68-.L70)/2
 678 007e 1E09     		.2byte	(.L68-.L70)/2
 679 0080 1E09     		.2byte	(.L68-.L70)/2
 680 0082 1E09     		.2byte	(.L68-.L70)/2
 681 0084 1E09     		.2byte	(.L68-.L70)/2
 682 0086 1E09     		.2byte	(.L68-.L70)/2
 683 0088 1E09     		.2byte	(.L68-.L70)/2
 684 008a 1E09     		.2byte	(.L68-.L70)/2
 685 008c 5703     		.2byte	(.L99-.L70)/2
 686 008e 7203     		.2byte	(.L98-.L70)/2
 687 0090 1E09     		.2byte	(.L68-.L70)/2
 688 0092 1E09     		.2byte	(.L68-.L70)/2
 689 0094 1E09     		.2byte	(.L68-.L70)/2
 690 0096 1E09     		.2byte	(.L68-.L70)/2
 691 0098 1E09     		.2byte	(.L68-.L70)/2
 692 009a 1E09     		.2byte	(.L68-.L70)/2
 693 009c 1E09     		.2byte	(.L68-.L70)/2
 694 009e 1E09     		.2byte	(.L68-.L70)/2
 695 00a0 1E09     		.2byte	(.L68-.L70)/2
 696 00a2 1E09     		.2byte	(.L68-.L70)/2
 697 00a4 1E09     		.2byte	(.L68-.L70)/2
 698 00a6 DA03     		.2byte	(.L97-.L70)/2
 699 00a8 F503     		.2byte	(.L96-.L70)/2
 700 00aa 1E09     		.2byte	(.L68-.L70)/2
 701 00ac 1E09     		.2byte	(.L68-.L70)/2
 702 00ae 1E09     		.2byte	(.L68-.L70)/2
 703 00b0 1E09     		.2byte	(.L68-.L70)/2
 704 00b2 1E09     		.2byte	(.L68-.L70)/2
 705 00b4 1E09     		.2byte	(.L68-.L70)/2
 706 00b6 1E09     		.2byte	(.L68-.L70)/2
 707 00b8 1E09     		.2byte	(.L68-.L70)/2
 708 00ba 1E09     		.2byte	(.L68-.L70)/2
 709 00bc 1E09     		.2byte	(.L68-.L70)/2
 710 00be 1E09     		.2byte	(.L68-.L70)/2
 711 00c0 6E04     		.2byte	(.L95-.L70)/2
 712 00c2 8A04     		.2byte	(.L94-.L70)/2
 713 00c4 1E09     		.2byte	(.L68-.L70)/2
 714 00c6 1E09     		.2byte	(.L68-.L70)/2
 715 00c8 1E09     		.2byte	(.L68-.L70)/2
 716 00ca 1E09     		.2byte	(.L68-.L70)/2
 717 00cc 1E09     		.2byte	(.L68-.L70)/2
 718 00ce 1E09     		.2byte	(.L68-.L70)/2
 719 00d0 1E09     		.2byte	(.L68-.L70)/2
 720 00d2 1E09     		.2byte	(.L68-.L70)/2
 721 00d4 1E09     		.2byte	(.L68-.L70)/2
 722 00d6 1E09     		.2byte	(.L68-.L70)/2
 723 00d8 1E09     		.2byte	(.L68-.L70)/2
 724 00da 1E09     		.2byte	(.L68-.L70)/2
 725 00dc 1E09     		.2byte	(.L68-.L70)/2
 726 00de 5801     		.2byte	(.L93-.L70)/2
 727 00e0 7601     		.2byte	(.L92-.L70)/2
ARM GAS  /tmp/ccZiTkxd.s 			page 18


 728 00e2 1E09     		.2byte	(.L68-.L70)/2
 729 00e4 1E09     		.2byte	(.L68-.L70)/2
 730 00e6 1E09     		.2byte	(.L68-.L70)/2
 731 00e8 1E09     		.2byte	(.L68-.L70)/2
 732 00ea 1E09     		.2byte	(.L68-.L70)/2
 733 00ec 1E09     		.2byte	(.L68-.L70)/2
 734 00ee 1E09     		.2byte	(.L68-.L70)/2
 735 00f0 0605     		.2byte	(.L91-.L70)/2
 736 00f2 2205     		.2byte	(.L90-.L70)/2
 737 00f4 1E09     		.2byte	(.L68-.L70)/2
 738 00f6 1E09     		.2byte	(.L68-.L70)/2
 739 00f8 1E09     		.2byte	(.L68-.L70)/2
 740 00fa 1E09     		.2byte	(.L68-.L70)/2
 741 00fc 1E09     		.2byte	(.L68-.L70)/2
 742 00fe 1E09     		.2byte	(.L68-.L70)/2
 743 0100 1E09     		.2byte	(.L68-.L70)/2
 744 0102 1E09     		.2byte	(.L68-.L70)/2
 745 0104 7105     		.2byte	(.L89-.L70)/2
 746 0106 8D05     		.2byte	(.L88-.L70)/2
 747 0108 1E09     		.2byte	(.L68-.L70)/2
 748 010a 1E09     		.2byte	(.L68-.L70)/2
 749 010c 1E09     		.2byte	(.L68-.L70)/2
 750 010e 1E09     		.2byte	(.L68-.L70)/2
 751 0110 1E09     		.2byte	(.L68-.L70)/2
 752 0112 1E09     		.2byte	(.L68-.L70)/2
 753 0114 1E09     		.2byte	(.L68-.L70)/2
 754 0116 DB05     		.2byte	(.L87-.L70)/2
 755 0118 F705     		.2byte	(.L86-.L70)/2
 756 011a 1E09     		.2byte	(.L68-.L70)/2
 757 011c 1E09     		.2byte	(.L68-.L70)/2
 758 011e 1E09     		.2byte	(.L68-.L70)/2
 759 0120 1E09     		.2byte	(.L68-.L70)/2
 760 0122 1E09     		.2byte	(.L68-.L70)/2
 761 0124 1E09     		.2byte	(.L68-.L70)/2
 762 0126 1E09     		.2byte	(.L68-.L70)/2
 763 0128 3906     		.2byte	(.L85-.L70)/2
 764 012a 5506     		.2byte	(.L84-.L70)/2
 765 012c 1E09     		.2byte	(.L68-.L70)/2
 766 012e 1E09     		.2byte	(.L68-.L70)/2
 767 0130 1E09     		.2byte	(.L68-.L70)/2
 768 0132 1E09     		.2byte	(.L68-.L70)/2
 769 0134 1E09     		.2byte	(.L68-.L70)/2
 770 0136 1E09     		.2byte	(.L68-.L70)/2
 771 0138 1E09     		.2byte	(.L68-.L70)/2
 772 013a 9606     		.2byte	(.L83-.L70)/2
 773 013c B206     		.2byte	(.L82-.L70)/2
 774 013e 1E09     		.2byte	(.L68-.L70)/2
 775 0140 1E09     		.2byte	(.L68-.L70)/2
 776 0142 1E09     		.2byte	(.L68-.L70)/2
 777 0144 1E09     		.2byte	(.L68-.L70)/2
 778 0146 1E09     		.2byte	(.L68-.L70)/2
 779 0148 1E09     		.2byte	(.L68-.L70)/2
 780 014a 1E09     		.2byte	(.L68-.L70)/2
 781 014c 1E09     		.2byte	(.L68-.L70)/2
 782 014e 1E09     		.2byte	(.L68-.L70)/2
 783 0150 1E09     		.2byte	(.L68-.L70)/2
 784 0152 1E09     		.2byte	(.L68-.L70)/2
ARM GAS  /tmp/ccZiTkxd.s 			page 19


 785 0154 1E09     		.2byte	(.L68-.L70)/2
 786 0156 1E09     		.2byte	(.L68-.L70)/2
 787 0158 1E09     		.2byte	(.L68-.L70)/2
 788 015a 1E09     		.2byte	(.L68-.L70)/2
 789 015c 1E09     		.2byte	(.L68-.L70)/2
 790 015e 1E09     		.2byte	(.L68-.L70)/2
 791 0160 1E09     		.2byte	(.L68-.L70)/2
 792 0162 1E09     		.2byte	(.L68-.L70)/2
 793 0164 1E09     		.2byte	(.L68-.L70)/2
 794 0166 1E09     		.2byte	(.L68-.L70)/2
 795 0168 1E09     		.2byte	(.L68-.L70)/2
 796 016a 0807     		.2byte	(.L81-.L70)/2
 797 016c 2407     		.2byte	(.L80-.L70)/2
 798 016e 1E09     		.2byte	(.L68-.L70)/2
 799 0170 1E09     		.2byte	(.L68-.L70)/2
 800 0172 1E09     		.2byte	(.L68-.L70)/2
 801 0174 1E09     		.2byte	(.L68-.L70)/2
 802 0176 1E09     		.2byte	(.L68-.L70)/2
 803 0178 1E09     		.2byte	(.L68-.L70)/2
 804 017a 1E09     		.2byte	(.L68-.L70)/2
 805 017c 1E09     		.2byte	(.L68-.L70)/2
 806 017e 1E09     		.2byte	(.L68-.L70)/2
 807 0180 1E09     		.2byte	(.L68-.L70)/2
 808 0182 1E09     		.2byte	(.L68-.L70)/2
 809 0184 1E09     		.2byte	(.L68-.L70)/2
 810 0186 8707     		.2byte	(.L79-.L70)/2
 811 0188 A307     		.2byte	(.L78-.L70)/2
 812 018a 1E09     		.2byte	(.L68-.L70)/2
 813 018c 1E09     		.2byte	(.L68-.L70)/2
 814 018e 1E09     		.2byte	(.L68-.L70)/2
 815 0190 1E09     		.2byte	(.L68-.L70)/2
 816 0192 1E09     		.2byte	(.L68-.L70)/2
 817 0194 1E09     		.2byte	(.L68-.L70)/2
 818 0196 1E09     		.2byte	(.L68-.L70)/2
 819 0198 E307     		.2byte	(.L77-.L70)/2
 820 019a FF07     		.2byte	(.L76-.L70)/2
 821 019c 1E09     		.2byte	(.L68-.L70)/2
 822 019e 1E09     		.2byte	(.L68-.L70)/2
 823 01a0 1E09     		.2byte	(.L68-.L70)/2
 824 01a2 1E09     		.2byte	(.L68-.L70)/2
 825 01a4 1E09     		.2byte	(.L68-.L70)/2
 826 01a6 1E09     		.2byte	(.L68-.L70)/2
 827 01a8 4F08     		.2byte	(.L75-.L70)/2
 828 01aa 6B08     		.2byte	(.L74-.L70)/2
 829 01ac 1E09     		.2byte	(.L68-.L70)/2
 830 01ae 1E09     		.2byte	(.L68-.L70)/2
 831 01b0 1E09     		.2byte	(.L68-.L70)/2
 832 01b2 1E09     		.2byte	(.L68-.L70)/2
 833 01b4 C408     		.2byte	(.L73-.L70)/2
 834 01b6 DF08     		.2byte	(.L72-.L70)/2
 835 01b8 1E09     		.2byte	(.L68-.L70)/2
 836 01ba 1E09     		.2byte	(.L68-.L70)/2
 837 01bc 1E09     		.2byte	(.L68-.L70)/2
 838 01be 4707     		.2byte	(.L71-.L70)/2
 839 01c0 1E09     		.2byte	(.L68-.L70)/2
 840 01c2 1E09     		.2byte	(.L68-.L70)/2
 841 01c4 2001     		.2byte	(.L69-.L70)/2
ARM GAS  /tmp/ccZiTkxd.s 			page 20


 842              	.LVL31:
 843              		.p2align 1
 844              	.L110:
 174:src/m5_app.c  ****     while (TRUE)
 175:src/m5_app.c  ****     {
 176:src/m5_app.c  **** 
 177:src/m5_app.c  ****   if (startup == 0)
 178:src/m5_app.c  ****   {
 179:src/m5_app.c  ****     for (i = 0; i < 5; i++)
 180:src/m5_app.c  ****     {
 181:src/m5_app.c  ****       sum[i][0] = '1';
 845              		.loc 1 181 7 discriminator 3 view .LVU150
 846              		.loc 1 181 17 is_stmt 0 discriminator 3 view .LVU151
 847 01c6 9E49     		ldr	r1, .L316
 848 01c8 1801     		lsls	r0, r3, #4
 849 01ca 01EB0312 		add	r2, r1, r3, lsl #4
 850 01ce 3125     		movs	r5, #49
 851 01d0 0D50     		str	r5, [r1, r0]
 182:src/m5_app.c  ****       sum[i][1] = '0';
 852              		.loc 1 182 7 is_stmt 1 discriminator 3 view .LVU152
 853              		.loc 1 182 17 is_stmt 0 discriminator 3 view .LVU153
 854 01d2 3021     		movs	r1, #48
 855 01d4 5160     		str	r1, [r2, #4]
 183:src/m5_app.c  ****       sum[i][2] = '0';
 856              		.loc 1 183 7 is_stmt 1 discriminator 3 view .LVU154
 857              		.loc 1 183 17 is_stmt 0 discriminator 3 view .LVU155
 858 01d6 9160     		str	r1, [r2, #8]
 184:src/m5_app.c  ****       sum[i][3] = '0';
 859              		.loc 1 184 7 is_stmt 1 discriminator 3 view .LVU156
 860              		.loc 1 184 17 is_stmt 0 discriminator 3 view .LVU157
 861 01d8 D160     		str	r1, [r2, #12]
 179:src/m5_app.c  ****     {
 862              		.loc 1 179 24 is_stmt 1 discriminator 3 view .LVU158
 179:src/m5_app.c  ****     {
 863              		.loc 1 179 25 is_stmt 0 discriminator 3 view .LVU159
 864 01da 0133     		adds	r3, r3, #1
 865 01dc 994A     		ldr	r2, .L316+4
 866 01de 1370     		strb	r3, [r2]
 867              	.L109:
 179:src/m5_app.c  ****     {
 868              		.loc 1 179 17 is_stmt 1 discriminator 1 view .LVU160
 179:src/m5_app.c  ****     {
 869              		.loc 1 179 19 is_stmt 0 discriminator 1 view .LVU161
 870 01e0 984B     		ldr	r3, .L316+4
 871 01e2 1B78     		ldrb	r3, [r3]	@ zero_extendqisi2
 179:src/m5_app.c  ****     {
 872              		.loc 1 179 5 discriminator 1 view .LVU162
 873 01e4 042B     		cmp	r3, #4
 874 01e6 EED9     		bls	.L110
 875              	.L108:
 185:src/m5_app.c  ****     }
 186:src/m5_app.c  ****   }
 187:src/m5_app.c  ****   startup = 1;
 876              		.loc 1 187 3 is_stmt 1 view .LVU163
 877              		.loc 1 187 11 is_stmt 0 view .LVU164
 878 01e8 974B     		ldr	r3, .L316+8
 879 01ea 0122     		movs	r2, #1
ARM GAS  /tmp/ccZiTkxd.s 			page 21


 880 01ec 1A70     		strb	r2, [r3]
 188:src/m5_app.c  **** 
 189:src/m5_app.c  ****       ESOS_TASK_WAIT_ON_AVAILABLE_IN_COMM();
 881              		.loc 1 189 7 is_stmt 1 view .LVU165
 882              		.loc 1 189 7 view .LVU166
 883 01ee BD23     		movs	r3, #189
 884 01f0 2380     		strh	r3, [r4]	@ movhi
 885              	.L107:
 886              		.loc 1 189 7 discriminator 1 view .LVU167
 887              		.loc 1 189 7 discriminator 1 view .LVU168
 888 01f2 A378     		ldrb	r3, [r4, #2]	@ zero_extendqisi2
 889 01f4 13F00405 		ands	r5, r3, #4
 890 01f8 4CD1     		bne	.L270
 891              		.loc 1 189 7 discriminator 3 view .LVU169
 892 01fa 944A     		ldr	r2, .L316+12
 893 01fc 1268     		ldr	r2, [r2]
 894 01fe 12F0080F 		tst	r2, #8
 895 0202 4CD1     		bne	.L113
 896              		.loc 1 189 7 discriminator 4 view .LVU170
 897 0204 23F00103 		bic	r3, r3, #1
 898 0208 A370     		strb	r3, [r4, #2]
 899              	.L114:
 900              		.loc 1 189 7 discriminator 7 view .LVU171
 901 020a A378     		ldrb	r3, [r4, #2]	@ zero_extendqisi2
 902 020c 13F0010F 		tst	r3, #1
 903 0210 41F01C80 		bne	.L112
 904              		.loc 1 189 7 discriminator 9 view .LVU172
 905              		.loc 1 189 7 discriminator 9 view .LVU173
 906 0214 8D4A     		ldr	r2, .L316+12
 907 0216 1368     		ldr	r3, [r2]
 908 0218 43F00803 		orr	r3, r3, #8
 909 021c 1360     		str	r3, [r2]
 190:src/m5_app.c  ****       ESOS_TASK_WAIT_ON_GET_UINT8(input);
 910              		.loc 1 190 7 discriminator 9 view .LVU174
 911              		.loc 1 190 7 discriminator 9 view .LVU175
 912 021e 8C4B     		ldr	r3, .L316+16
 913 0220 0022     		movs	r2, #0
 914 0222 1A80     		strh	r2, [r3]	@ movhi
 915              		.loc 1 190 7 discriminator 9 view .LVU176
 916              		.loc 1 190 7 discriminator 9 view .LVU177
 917              		.loc 1 190 7 discriminator 9 view .LVU178
 918              		.loc 1 190 7 discriminator 9 view .LVU179
 919 0224 BE23     		movs	r3, #190
 920 0226 2380     		strh	r3, [r4]	@ movhi
 921              	.L106:
 922              		.loc 1 190 7 discriminator 1 view .LVU180
 923              		.loc 1 190 7 discriminator 1 view .LVU181
 924 0228 A578     		ldrb	r5, [r4, #2]	@ zero_extendqisi2
 925 022a 15F00405 		ands	r5, r5, #4
 926 022e 3AD1     		bne	.L271
 927              		.loc 1 190 7 discriminator 3 view .LVU182
 928 0230 0122     		movs	r2, #1
 929 0232 8849     		ldr	r1, .L316+20
 930 0234 8648     		ldr	r0, .L316+16
 931 0236 FFF7FEFF 		bl	__esos_getBuffer
 932              	.LVL32:
 933 023a 0228     		cmp	r0, #2
ARM GAS  /tmp/ccZiTkxd.s 			page 22


 934 023c 38D9     		bls	.L116
 935              		.loc 1 190 7 discriminator 4 view .LVU183
 936 023e A378     		ldrb	r3, [r4, #2]	@ zero_extendqisi2
 937 0240 23F00103 		bic	r3, r3, #1
 938 0244 A370     		strb	r3, [r4, #2]
 939              	.L117:
 940              		.loc 1 190 7 discriminator 7 view .LVU184
 941 0246 A378     		ldrb	r3, [r4, #2]	@ zero_extendqisi2
 942 0248 13F0010F 		tst	r3, #1
 943 024c 40F0FE87 		bne	.L112
 944              		.loc 1 190 7 discriminator 9 view .LVU185
 945              		.loc 1 190 7 discriminator 9 view .LVU186
 191:src/m5_app.c  ****       ESOS_TASK_SIGNAL_AVAILABLE_IN_COMM();
 946              		.loc 1 191 7 discriminator 9 view .LVU187
 947 0250 7E4A     		ldr	r2, .L316+12
 948 0252 1368     		ldr	r3, [r2]
 949 0254 23F00803 		bic	r3, r3, #8
 950 0258 1360     		str	r3, [r2]
 192:src/m5_app.c  **** 
 193:src/m5_app.c  ****       if(!input == 0)
 951              		.loc 1 193 7 discriminator 9 view .LVU188
 952              		.loc 1 193 17 is_stmt 0 discriminator 9 view .LVU189
 953 025a 7E4B     		ldr	r3, .L316+20
 954 025c 1B78     		ldrb	r3, [r3]	@ zero_extendqisi2
 955              		.loc 1 193 9 discriminator 9 view .LVU190
 956 025e 63BB     		cbnz	r3, .L272
 194:src/m5_app.c  ****       { 
 195:src/m5_app.c  ****         if(!B1_PUSHED())
 196:src/m5_app.c  ****         {
 197:src/m5_app.c  ****           if(input == 'S')
 198:src/m5_app.c  ****           {
 199:src/m5_app.c  **** 
 200:src/m5_app.c  ****             ESOS_TASK_WAIT_ON_AVAILABLE_IN_COMM();
 201:src/m5_app.c  ****             ESOS_TASK_WAIT_ON_GET_UINT8(chooseLED);
 202:src/m5_app.c  ****             ESOS_TASK_SIGNAL_AVAILABLE_IN_COMM();
 203:src/m5_app.c  ****          
 204:src/m5_app.c  ****             chooseLED = chooseLED%48;
 205:src/m5_app.c  ****             if(chooseLED == 0)
 206:src/m5_app.c  ****             {
 207:src/m5_app.c  ****               
 208:src/m5_app.c  ****               while (i<4)
 209:src/m5_app.c  ****               {
 210:src/m5_app.c  ****                 ESOS_TASK_WAIT_ON_AVAILABLE_IN_COMM();
 211:src/m5_app.c  ****                 ESOS_TASK_WAIT_ON_GET_UINT8(digit);
 212:src/m5_app.c  ****                 ESOS_TASK_SIGNAL_AVAILABLE_IN_COMM();
 213:src/m5_app.c  ****                 sum[chooseLED][i] = digit; 
 214:src/m5_app.c  ****                 i++;
 215:src/m5_app.c  **** 
 216:src/m5_app.c  ****               }
 217:src/m5_app.c  ****               edub_LD0_period = ((sum[chooseLED][0]%48)*1000) + ((sum[chooseLED][1]%48)*100) + ((su
 218:src/m5_app.c  ****             }
 219:src/m5_app.c  ****             else if(chooseLED == 1)
 220:src/m5_app.c  ****             {
 221:src/m5_app.c  ****               while (i<4)
 222:src/m5_app.c  ****               {
 223:src/m5_app.c  ****                 ESOS_TASK_WAIT_ON_AVAILABLE_IN_COMM();
 224:src/m5_app.c  ****                 ESOS_TASK_WAIT_ON_GET_UINT8(digit);
ARM GAS  /tmp/ccZiTkxd.s 			page 23


 225:src/m5_app.c  ****                 ESOS_TASK_SIGNAL_AVAILABLE_IN_COMM();
 226:src/m5_app.c  ****                 sum[chooseLED][i] = digit; 
 227:src/m5_app.c  ****                 i++;
 228:src/m5_app.c  **** 
 229:src/m5_app.c  ****               }
 230:src/m5_app.c  ****               edub_LD1_period = ((sum[chooseLED][0]%48)*1000) + ((sum[chooseLED][1]%48)*100) + ((su
 231:src/m5_app.c  ****             }
 232:src/m5_app.c  ****             else if(chooseLED == 2)
 233:src/m5_app.c  ****             {
 234:src/m5_app.c  ****               while (i<4)
 235:src/m5_app.c  ****               {
 236:src/m5_app.c  ****                 ESOS_TASK_WAIT_ON_AVAILABLE_IN_COMM();
 237:src/m5_app.c  ****                 ESOS_TASK_WAIT_ON_GET_UINT8(digit);
 238:src/m5_app.c  ****                 ESOS_TASK_SIGNAL_AVAILABLE_IN_COMM();
 239:src/m5_app.c  ****                 sum[chooseLED][i] = digit; 
 240:src/m5_app.c  ****                 i++;
 241:src/m5_app.c  **** 
 242:src/m5_app.c  ****               }
 243:src/m5_app.c  ****               edub_LD2_period = ((sum[chooseLED][0]%48)*1000) + ((sum[chooseLED][1]%48)*100) + ((su
 244:src/m5_app.c  ****             }
 245:src/m5_app.c  ****             else if(chooseLED == 3)
 246:src/m5_app.c  ****             {
 247:src/m5_app.c  ****               while (i<4)
 248:src/m5_app.c  ****               {
 249:src/m5_app.c  ****                 ESOS_TASK_WAIT_ON_AVAILABLE_IN_COMM();
 250:src/m5_app.c  ****                 ESOS_TASK_WAIT_ON_GET_UINT8(digit);
 251:src/m5_app.c  ****                 ESOS_TASK_SIGNAL_AVAILABLE_IN_COMM();
 252:src/m5_app.c  ****                 sum[chooseLED][i] = digit;  
 253:src/m5_app.c  ****                 i++;
 254:src/m5_app.c  **** 
 255:src/m5_app.c  ****               }
 256:src/m5_app.c  ****               edub_LD3_period = ((sum[chooseLED][0]%48)*1000) + ((sum[chooseLED][1]%48)*100) + ((su
 257:src/m5_app.c  ****             }
 258:src/m5_app.c  ****             else if(chooseLED == 4)
 259:src/m5_app.c  ****             {
 260:src/m5_app.c  ****               while (i<4)
 261:src/m5_app.c  ****               {
 262:src/m5_app.c  ****                 ESOS_TASK_WAIT_ON_AVAILABLE_IN_COMM();
 263:src/m5_app.c  ****                 ESOS_TASK_WAIT_ON_GET_UINT8(digit);
 264:src/m5_app.c  ****                 ESOS_TASK_SIGNAL_AVAILABLE_IN_COMM();
 265:src/m5_app.c  ****                 sum[chooseLED][i] = digit; 
 266:src/m5_app.c  ****                 i++;
 267:src/m5_app.c  **** 
 268:src/m5_app.c  ****               }
 269:src/m5_app.c  ****               timer2Period = ((sum[chooseLED][0]%48)*1000) + ((sum[chooseLED][1]%48)*100) + ((sum[c
 270:src/m5_app.c  ****             }
 271:src/m5_app.c  ****             else{
 272:src/m5_app.c  ****               continue;
 273:src/m5_app.c  ****             }
 274:src/m5_app.c  ****           }
 275:src/m5_app.c  ****           else if(input == 'L')
 276:src/m5_app.c  ****           {
 277:src/m5_app.c  ****             ESOS_TASK_WAIT_ON_AVAILABLE_IN_COMM();
 278:src/m5_app.c  ****             ESOS_TASK_WAIT_ON_GET_UINT8(chooseLED);
 279:src/m5_app.c  ****             ESOS_TASK_SIGNAL_AVAILABLE_IN_COMM();
 280:src/m5_app.c  ****  
 281:src/m5_app.c  ****             chooseLED = chooseLED%48; 
ARM GAS  /tmp/ccZiTkxd.s 			page 24


 282:src/m5_app.c  ****             if (chooseLED == 0)
 283:src/m5_app.c  ****             {
 284:src/m5_app.c  ****               for (i = 0; i < 4; i++)
 285:src/m5_app.c  ****               {
 286:src/m5_app.c  ****                 ESOS_TASK_WAIT_ON_AVAILABLE_OUT_COMM();
 287:src/m5_app.c  ****                 ESOS_TASK_WAIT_ON_SEND_UINT8(sum[chooseLED][i]);
 288:src/m5_app.c  ****                 ESOS_TASK_SIGNAL_AVAILABLE_OUT_COMM();
 289:src/m5_app.c  ****               }
 290:src/m5_app.c  ****               
 291:src/m5_app.c  ****             }
 292:src/m5_app.c  ****             else if (chooseLED == 1)
 293:src/m5_app.c  ****             {
 294:src/m5_app.c  ****               for (i = 0; i < 4; i++)
 295:src/m5_app.c  ****               {
 296:src/m5_app.c  ****                 ESOS_TASK_WAIT_ON_AVAILABLE_OUT_COMM();
 297:src/m5_app.c  ****                 ESOS_TASK_WAIT_ON_SEND_UINT8(sum[chooseLED][i]);
 298:src/m5_app.c  ****                 ESOS_TASK_SIGNAL_AVAILABLE_OUT_COMM(); 
 299:src/m5_app.c  ****               }
 300:src/m5_app.c  ****             }
 301:src/m5_app.c  ****             else if (chooseLED == 2)
 302:src/m5_app.c  ****             {
 303:src/m5_app.c  ****               for (i = 0; i < 4; i++)
 304:src/m5_app.c  ****               {
 305:src/m5_app.c  ****                 ESOS_TASK_WAIT_ON_AVAILABLE_OUT_COMM();
 306:src/m5_app.c  ****                 ESOS_TASK_WAIT_ON_SEND_UINT8(sum[chooseLED][i]);
 307:src/m5_app.c  ****                 ESOS_TASK_SIGNAL_AVAILABLE_OUT_COMM(); 
 308:src/m5_app.c  ****               }
 309:src/m5_app.c  ****             }
 310:src/m5_app.c  ****             else if (chooseLED == 3)
 311:src/m5_app.c  ****             {
 312:src/m5_app.c  ****               for (i = 0; i < 4; i++)
 313:src/m5_app.c  ****               {
 314:src/m5_app.c  ****                 ESOS_TASK_WAIT_ON_AVAILABLE_OUT_COMM();
 315:src/m5_app.c  ****                 ESOS_TASK_WAIT_ON_SEND_UINT8(sum[chooseLED][i]);
 316:src/m5_app.c  ****                 ESOS_TASK_SIGNAL_AVAILABLE_OUT_COMM(); 
 317:src/m5_app.c  ****               }
 318:src/m5_app.c  ****             }
 319:src/m5_app.c  ****             else if (chooseLED == 4)
 320:src/m5_app.c  ****             {
 321:src/m5_app.c  ****               for (i = 0; i < 4; i++)
 322:src/m5_app.c  ****               {
 323:src/m5_app.c  ****                 ESOS_TASK_WAIT_ON_AVAILABLE_OUT_COMM();
 324:src/m5_app.c  ****                 ESOS_TASK_WAIT_ON_SEND_UINT8(sum[chooseLED][i]);
 325:src/m5_app.c  ****                 ESOS_TASK_SIGNAL_AVAILABLE_OUT_COMM(); 
 326:src/m5_app.c  ****                 
 327:src/m5_app.c  ****               }
 328:src/m5_app.c  ****             }
 329:src/m5_app.c  ****             else{
 330:src/m5_app.c  ****               continue;
 331:src/m5_app.c  ****             }
 332:src/m5_app.c  ****           }
 333:src/m5_app.c  ****           else
 334:src/m5_app.c  ****           {
 335:src/m5_app.c  ****             continue;
 336:src/m5_app.c  ****           }
 337:src/m5_app.c  ****           input = 0;
 338:src/m5_app.c  ****           i = 0;
ARM GAS  /tmp/ccZiTkxd.s 			page 25


 339:src/m5_app.c  **** 
 340:src/m5_app.c  **** 
 341:src/m5_app.c  ****         }
 342:src/m5_app.c  ****       //If switch 2 on the PTB is pressed, all nonalphanumeric characters will be removed from
 343:src/m5_app.c  ****       //the receive buffer
 344:src/m5_app.c  ****         else if (EDUB_SW2_PUSHED()){
 345:src/m5_app.c  **** 
 346:src/m5_app.c  ****           if(isalnum(input)){
 347:src/m5_app.c  ****             ESOS_TASK_WAIT_ON_AVAILABLE_OUT_COMM();
 348:src/m5_app.c  ****             ESOS_TASK_WAIT_ON_SEND_UINT8(input);
 349:src/m5_app.c  ****             ESOS_TASK_SIGNAL_AVAILABLE_OUT_COMM(); 
 350:src/m5_app.c  ****           }
 351:src/m5_app.c  ****           else{
 352:src/m5_app.c  ****             continue;   
 353:src/m5_app.c  ****           }
 354:src/m5_app.c  **** 
 355:src/m5_app.c  ****           input = 0;
 356:src/m5_app.c  ****         }
 357:src/m5_app.c  ****       //If switch 3 on the PTB is pressed, all incoming characters will be converted to uppercase
 358:src/m5_app.c  ****         else if(EDUB_SW3_PUSHED()){
 359:src/m5_app.c  **** 
 360:src/m5_app.c  ****           toUpper = toupper(input);
 361:src/m5_app.c  ****           ESOS_TASK_WAIT_ON_AVAILABLE_OUT_COMM();
 362:src/m5_app.c  ****           ESOS_TASK_WAIT_ON_SEND_UINT8(toUpper);
 363:src/m5_app.c  ****           ESOS_TASK_SIGNAL_AVAILABLE_OUT_COMM();  
 364:src/m5_app.c  ****           
 365:src/m5_app.c  ****           input = 0;
 366:src/m5_app.c  ****         }
 367:src/m5_app.c  ****       //If switch 4 on the PTB is pressed, incoming data will be encrypted
 368:src/m5_app.c  ****         else if(EDUB_SW4_PUSHED()){
 369:src/m5_app.c  ****           encrypt = encypher(input);
 370:src/m5_app.c  ****           ESOS_TASK_WAIT_ON_AVAILABLE_OUT_COMM();
 371:src/m5_app.c  ****           ESOS_TASK_WAIT_ON_SEND_UINT8(encrypt);
 372:src/m5_app.c  ****           ESOS_TASK_SIGNAL_AVAILABLE_OUT_COMM(); 
 373:src/m5_app.c  ****           input = 0;
 374:src/m5_app.c  ****         }
 375:src/m5_app.c  ****       //If switch 4 on the PTB is pressed, incoming data will be encrypted
 376:src/m5_app.c  ****         else if(EDUB_SW5_PUSHED()){
 377:src/m5_app.c  ****           decrypt = decypher(input);
 378:src/m5_app.c  ****           ESOS_TASK_WAIT_ON_AVAILABLE_OUT_COMM();
 379:src/m5_app.c  ****           ESOS_TASK_WAIT_ON_SEND_UINT8(decrypt);
 380:src/m5_app.c  ****           ESOS_TASK_SIGNAL_AVAILABLE_OUT_COMM(); 
 381:src/m5_app.c  ****           input = 0;
 382:src/m5_app.c  ****         }
 383:src/m5_app.c  ****         else if(B1_PUSHED() && !EDUB_SW2_PUSHED() && !EDUB_SW3_PUSHED() && !EDUB_SW4_PUSHED() && !E
 384:src/m5_app.c  ****           ESOS_TASK_WAIT_ON_AVAILABLE_OUT_COMM();
 385:src/m5_app.c  ****           ESOS_TASK_WAIT_ON_SEND_UINT8(input);
 386:src/m5_app.c  ****           ESOS_TASK_SIGNAL_AVAILABLE_OUT_COMM(); 
 387:src/m5_app.c  ****           input = 0;
 388:src/m5_app.c  ****         }
 389:src/m5_app.c  ****         ESOS_TASK_YIELD();
 390:src/m5_app.c  ****       }
 391:src/m5_app.c  ****       else{
 392:src/m5_app.c  ****         ESOS_TASK_YIELD();
 957              		.loc 1 392 9 is_stmt 1 view .LVU191
 958              		.loc 1 392 9 view .LVU192
 959 0260 A378     		ldrb	r3, [r4, #2]	@ zero_extendqisi2
ARM GAS  /tmp/ccZiTkxd.s 			page 26


 960 0262 03F07F03 		and	r3, r3, #127
 961 0266 A370     		strb	r3, [r4, #2]
 962              		.loc 1 392 9 view .LVU193
 963              		.loc 1 392 9 view .LVU194
 964 0268 4FF4C473 		mov	r3, #392
 965 026c 2380     		strh	r3, [r4]	@ movhi
 966              	.L69:
 967              		.loc 1 392 9 discriminator 1 view .LVU195
 968              		.loc 1 392 9 discriminator 1 view .LVU196
 969 026e A378     		ldrb	r3, [r4, #2]	@ zero_extendqisi2
 970 0270 13F00405 		ands	r5, r3, #4
 971 0274 40F0F087 		bne	.L273
 972              		.loc 1 392 9 discriminator 3 view .LVU197
 973 0278 13F0800F 		tst	r3, #128
 974 027c 40F0F087 		bne	.L274
 975              		.loc 1 392 9 discriminator 5 view .LVU198
 976 0280 43F00103 		orr	r3, r3, #1
 977 0284 A370     		strb	r3, [r4, #2]
 978              	.L264:
 979              		.loc 1 392 9 discriminator 7 view .LVU199
 980 0286 A378     		ldrb	r3, [r4, #2]	@ zero_extendqisi2
 981 0288 13F0010F 		tst	r3, #1
 982 028c 00F02786 		beq	.L67
 983 0290 00F0DCBF 		b	.L112
 984              	.L270:
 189:src/m5_app.c  ****       ESOS_TASK_WAIT_ON_GET_UINT8(input);
 985              		.loc 1 189 7 discriminator 2 view .LVU200
 986 0294 0423     		movs	r3, #4
 987 0296 A370     		strb	r3, [r4, #2]
 189:src/m5_app.c  ****       ESOS_TASK_WAIT_ON_GET_UINT8(input);
 988              		.loc 1 189 7 discriminator 2 view .LVU201
 989 0298 0325     		movs	r5, #3
 990 029a 00F0D7BF 		b	.L112
 991              	.L113:
 189:src/m5_app.c  ****       ESOS_TASK_WAIT_ON_GET_UINT8(input);
 992              		.loc 1 189 7 discriminator 5 view .LVU202
 993 029e 43F00103 		orr	r3, r3, #1
 994 02a2 A370     		strb	r3, [r4, #2]
 995 02a4 B1E7     		b	.L114
 996              	.L271:
 190:src/m5_app.c  ****       ESOS_TASK_SIGNAL_AVAILABLE_IN_COMM();
 997              		.loc 1 190 7 discriminator 2 view .LVU203
 998 02a6 0423     		movs	r3, #4
 999 02a8 A370     		strb	r3, [r4, #2]
 190:src/m5_app.c  ****       ESOS_TASK_SIGNAL_AVAILABLE_IN_COMM();
 1000              		.loc 1 190 7 discriminator 2 view .LVU204
 1001 02aa 0325     		movs	r5, #3
 1002 02ac 00F0CEBF 		b	.L112
 1003              	.L116:
 190:src/m5_app.c  ****       ESOS_TASK_SIGNAL_AVAILABLE_IN_COMM();
 1004              		.loc 1 190 7 discriminator 5 view .LVU205
 1005 02b0 A378     		ldrb	r3, [r4, #2]	@ zero_extendqisi2
 1006 02b2 43F00103 		orr	r3, r3, #1
 1007 02b6 A370     		strb	r3, [r4, #2]
 1008 02b8 C5E7     		b	.L117
 1009              	.L272:
 195:src/m5_app.c  ****         {
ARM GAS  /tmp/ccZiTkxd.s 			page 27


 1010              		.loc 1 195 9 view .LVU206
 195:src/m5_app.c  ****         {
 1011              		.loc 1 195 13 is_stmt 0 view .LVU207
 1012 02ba 4FF40051 		mov	r1, #8192
 1013 02be 6648     		ldr	r0, .L316+24
 1014 02c0 FFF7FEFF 		bl	gpio_get
 1015              	.LVL33:
 195:src/m5_app.c  ****         {
 1016              		.loc 1 195 11 view .LVU208
 1017 02c4 0028     		cmp	r0, #0
 1018 02c6 40F0A985 		bne	.L119
 197:src/m5_app.c  ****           {
 1019              		.loc 1 197 11 is_stmt 1 view .LVU209
 197:src/m5_app.c  ****           {
 1020              		.loc 1 197 20 is_stmt 0 view .LVU210
 1021 02ca 624B     		ldr	r3, .L316+20
 1022 02cc 1B78     		ldrb	r3, [r3]	@ zero_extendqisi2
 197:src/m5_app.c  ****           {
 1023              		.loc 1 197 13 view .LVU211
 1024 02ce 532B     		cmp	r3, #83
 1025 02d0 51D0     		beq	.L275
 275:src/m5_app.c  ****           {
 1026              		.loc 1 275 16 is_stmt 1 view .LVU212
 275:src/m5_app.c  ****           {
 1027              		.loc 1 275 18 is_stmt 0 view .LVU213
 1028 02d2 4C2B     		cmp	r3, #76
 1029 02d4 40F00386 		bne	.L67
 277:src/m5_app.c  ****             ESOS_TASK_WAIT_ON_GET_UINT8(chooseLED);
 1030              		.loc 1 277 13 is_stmt 1 view .LVU214
 277:src/m5_app.c  ****             ESOS_TASK_WAIT_ON_GET_UINT8(chooseLED);
 1031              		.loc 1 277 13 view .LVU215
 1032 02d8 40F21513 		movw	r3, #277
 1033 02dc 2380     		strh	r3, [r4]	@ movhi
 1034              	.L93:
 277:src/m5_app.c  ****             ESOS_TASK_WAIT_ON_GET_UINT8(chooseLED);
 1035              		.loc 1 277 13 discriminator 1 view .LVU216
 277:src/m5_app.c  ****             ESOS_TASK_WAIT_ON_GET_UINT8(chooseLED);
 1036              		.loc 1 277 13 discriminator 1 view .LVU217
 1037 02de A378     		ldrb	r3, [r4, #2]	@ zero_extendqisi2
 1038 02e0 13F00405 		ands	r5, r3, #4
 1039 02e4 40F09383 		bne	.L276
 277:src/m5_app.c  ****             ESOS_TASK_WAIT_ON_GET_UINT8(chooseLED);
 1040              		.loc 1 277 13 discriminator 3 view .LVU218
 1041 02e8 584A     		ldr	r2, .L316+12
 1042 02ea 1268     		ldr	r2, [r2]
 1043 02ec 12F0080F 		tst	r2, #8
 1044 02f0 40F09283 		bne	.L173
 277:src/m5_app.c  ****             ESOS_TASK_WAIT_ON_GET_UINT8(chooseLED);
 1045              		.loc 1 277 13 discriminator 4 view .LVU219
 1046 02f4 23F00103 		bic	r3, r3, #1
 1047 02f8 A370     		strb	r3, [r4, #2]
 1048              	.L174:
 277:src/m5_app.c  ****             ESOS_TASK_WAIT_ON_GET_UINT8(chooseLED);
 1049              		.loc 1 277 13 discriminator 7 view .LVU220
 1050 02fa A378     		ldrb	r3, [r4, #2]	@ zero_extendqisi2
 1051 02fc 13F0010F 		tst	r3, #1
 1052 0300 40F0A487 		bne	.L112
ARM GAS  /tmp/ccZiTkxd.s 			page 28


 277:src/m5_app.c  ****             ESOS_TASK_WAIT_ON_GET_UINT8(chooseLED);
 1053              		.loc 1 277 13 discriminator 9 view .LVU221
 277:src/m5_app.c  ****             ESOS_TASK_WAIT_ON_GET_UINT8(chooseLED);
 1054              		.loc 1 277 13 discriminator 9 view .LVU222
 1055 0304 514A     		ldr	r2, .L316+12
 1056 0306 1368     		ldr	r3, [r2]
 1057 0308 43F00803 		orr	r3, r3, #8
 1058 030c 1360     		str	r3, [r2]
 278:src/m5_app.c  ****             ESOS_TASK_SIGNAL_AVAILABLE_IN_COMM();
 1059              		.loc 1 278 13 discriminator 9 view .LVU223
 278:src/m5_app.c  ****             ESOS_TASK_SIGNAL_AVAILABLE_IN_COMM();
 1060              		.loc 1 278 13 discriminator 9 view .LVU224
 1061 030e 504B     		ldr	r3, .L316+16
 1062 0310 0022     		movs	r2, #0
 1063 0312 1A80     		strh	r2, [r3]	@ movhi
 278:src/m5_app.c  ****             ESOS_TASK_SIGNAL_AVAILABLE_IN_COMM();
 1064              		.loc 1 278 13 discriminator 9 view .LVU225
 278:src/m5_app.c  ****             ESOS_TASK_SIGNAL_AVAILABLE_IN_COMM();
 1065              		.loc 1 278 13 discriminator 9 view .LVU226
 278:src/m5_app.c  ****             ESOS_TASK_SIGNAL_AVAILABLE_IN_COMM();
 1066              		.loc 1 278 13 discriminator 9 view .LVU227
 278:src/m5_app.c  ****             ESOS_TASK_SIGNAL_AVAILABLE_IN_COMM();
 1067              		.loc 1 278 13 discriminator 9 view .LVU228
 1068 0314 4FF48B73 		mov	r3, #278
 1069 0318 2380     		strh	r3, [r4]	@ movhi
 1070              	.L92:
 278:src/m5_app.c  ****             ESOS_TASK_SIGNAL_AVAILABLE_IN_COMM();
 1071              		.loc 1 278 13 discriminator 1 view .LVU229
 278:src/m5_app.c  ****             ESOS_TASK_SIGNAL_AVAILABLE_IN_COMM();
 1072              		.loc 1 278 13 discriminator 1 view .LVU230
 1073 031a A578     		ldrb	r5, [r4, #2]	@ zero_extendqisi2
 1074 031c 15F00405 		ands	r5, r5, #4
 1075 0320 40F07E83 		bne	.L277
 278:src/m5_app.c  ****             ESOS_TASK_SIGNAL_AVAILABLE_IN_COMM();
 1076              		.loc 1 278 13 discriminator 3 view .LVU231
 1077 0324 0122     		movs	r2, #1
 1078 0326 4D49     		ldr	r1, .L316+28
 1079 0328 4948     		ldr	r0, .L316+16
 1080 032a FFF7FEFF 		bl	__esos_getBuffer
 1081              	.LVL34:
 1082 032e 0228     		cmp	r0, #2
 1083 0330 40F27B83 		bls	.L176
 278:src/m5_app.c  ****             ESOS_TASK_SIGNAL_AVAILABLE_IN_COMM();
 1084              		.loc 1 278 13 discriminator 4 view .LVU232
 1085 0334 A378     		ldrb	r3, [r4, #2]	@ zero_extendqisi2
 1086 0336 23F00103 		bic	r3, r3, #1
 1087 033a A370     		strb	r3, [r4, #2]
 1088              	.L177:
 278:src/m5_app.c  ****             ESOS_TASK_SIGNAL_AVAILABLE_IN_COMM();
 1089              		.loc 1 278 13 discriminator 7 view .LVU233
 1090 033c A378     		ldrb	r3, [r4, #2]	@ zero_extendqisi2
 1091 033e 13F0010F 		tst	r3, #1
 1092 0342 40F08387 		bne	.L112
 278:src/m5_app.c  ****             ESOS_TASK_SIGNAL_AVAILABLE_IN_COMM();
 1093              		.loc 1 278 13 discriminator 9 view .LVU234
 278:src/m5_app.c  ****             ESOS_TASK_SIGNAL_AVAILABLE_IN_COMM();
 1094              		.loc 1 278 13 discriminator 9 view .LVU235
ARM GAS  /tmp/ccZiTkxd.s 			page 29


 279:src/m5_app.c  ****  
 1095              		.loc 1 279 13 discriminator 9 view .LVU236
 1096 0346 414A     		ldr	r2, .L316+12
 1097 0348 1368     		ldr	r3, [r2]
 1098 034a 23F00803 		bic	r3, r3, #8
 1099 034e 1360     		str	r3, [r2]
 281:src/m5_app.c  ****             if (chooseLED == 0)
 1100              		.loc 1 281 13 discriminator 9 view .LVU237
 281:src/m5_app.c  ****             if (chooseLED == 0)
 1101              		.loc 1 281 23 is_stmt 0 discriminator 9 view .LVU238
 1102 0350 4249     		ldr	r1, .L316+28
 1103 0352 0B78     		ldrb	r3, [r1]	@ zero_extendqisi2
 1104 0354 424A     		ldr	r2, .L316+32
 1105 0356 A2FB0302 		umull	r0, r2, r2, r3
 1106 035a 5209     		lsrs	r2, r2, #5
 1107 035c 02EB4202 		add	r2, r2, r2, lsl #1
 1108 0360 A3EB0213 		sub	r3, r3, r2, lsl #4
 1109 0364 DBB2     		uxtb	r3, r3
 1110 0366 0B70     		strb	r3, [r1]
 282:src/m5_app.c  ****             {
 1111              		.loc 1 282 13 is_stmt 1 discriminator 9 view .LVU239
 282:src/m5_app.c  ****             {
 1112              		.loc 1 282 16 is_stmt 0 discriminator 9 view .LVU240
 1113 0368 002B     		cmp	r3, #0
 1114 036a 40F0BC83 		bne	.L178
 284:src/m5_app.c  ****               {
 1115              		.loc 1 284 15 is_stmt 1 view .LVU241
 284:src/m5_app.c  ****               {
 1116              		.loc 1 284 22 is_stmt 0 view .LVU242
 1117 036e 354B     		ldr	r3, .L316+4
 1118 0370 0022     		movs	r2, #0
 1119 0372 1A70     		strb	r2, [r3]
 284:src/m5_app.c  ****               {
 1120              		.loc 1 284 15 view .LVU243
 1121 0374 A1E3     		b	.L179
 1122              	.L275:
 200:src/m5_app.c  ****             ESOS_TASK_WAIT_ON_GET_UINT8(chooseLED);
 1123              		.loc 1 200 13 is_stmt 1 view .LVU244
 200:src/m5_app.c  ****             ESOS_TASK_WAIT_ON_GET_UINT8(chooseLED);
 1124              		.loc 1 200 13 view .LVU245
 1125 0376 C823     		movs	r3, #200
 1126 0378 2380     		strh	r3, [r4]	@ movhi
 1127              	.L105:
 200:src/m5_app.c  ****             ESOS_TASK_WAIT_ON_GET_UINT8(chooseLED);
 1128              		.loc 1 200 13 discriminator 1 view .LVU246
 200:src/m5_app.c  ****             ESOS_TASK_WAIT_ON_GET_UINT8(chooseLED);
 1129              		.loc 1 200 13 discriminator 1 view .LVU247
 1130 037a A378     		ldrb	r3, [r4, #2]	@ zero_extendqisi2
 1131 037c 13F00405 		ands	r5, r3, #4
 1132 0380 4BD1     		bne	.L278
 200:src/m5_app.c  ****             ESOS_TASK_WAIT_ON_GET_UINT8(chooseLED);
 1133              		.loc 1 200 13 discriminator 3 view .LVU248
 1134 0382 324A     		ldr	r2, .L316+12
 1135 0384 1268     		ldr	r2, [r2]
 1136 0386 12F0080F 		tst	r2, #8
 1137 038a 4BD1     		bne	.L122
 200:src/m5_app.c  ****             ESOS_TASK_WAIT_ON_GET_UINT8(chooseLED);
ARM GAS  /tmp/ccZiTkxd.s 			page 30


 1138              		.loc 1 200 13 discriminator 4 view .LVU249
 1139 038c 23F00103 		bic	r3, r3, #1
 1140 0390 A370     		strb	r3, [r4, #2]
 1141              	.L123:
 200:src/m5_app.c  ****             ESOS_TASK_WAIT_ON_GET_UINT8(chooseLED);
 1142              		.loc 1 200 13 discriminator 7 view .LVU250
 1143 0392 A378     		ldrb	r3, [r4, #2]	@ zero_extendqisi2
 1144 0394 13F0010F 		tst	r3, #1
 1145 0398 40F05887 		bne	.L112
 200:src/m5_app.c  ****             ESOS_TASK_WAIT_ON_GET_UINT8(chooseLED);
 1146              		.loc 1 200 13 discriminator 9 view .LVU251
 200:src/m5_app.c  ****             ESOS_TASK_WAIT_ON_GET_UINT8(chooseLED);
 1147              		.loc 1 200 13 discriminator 9 view .LVU252
 1148 039c 2B4A     		ldr	r2, .L316+12
 1149 039e 1368     		ldr	r3, [r2]
 1150 03a0 43F00803 		orr	r3, r3, #8
 1151 03a4 1360     		str	r3, [r2]
 201:src/m5_app.c  ****             ESOS_TASK_SIGNAL_AVAILABLE_IN_COMM();
 1152              		.loc 1 201 13 discriminator 9 view .LVU253
 201:src/m5_app.c  ****             ESOS_TASK_SIGNAL_AVAILABLE_IN_COMM();
 1153              		.loc 1 201 13 discriminator 9 view .LVU254
 1154 03a6 2A4B     		ldr	r3, .L316+16
 1155 03a8 0022     		movs	r2, #0
 1156 03aa 1A80     		strh	r2, [r3]	@ movhi
 201:src/m5_app.c  ****             ESOS_TASK_SIGNAL_AVAILABLE_IN_COMM();
 1157              		.loc 1 201 13 discriminator 9 view .LVU255
 201:src/m5_app.c  ****             ESOS_TASK_SIGNAL_AVAILABLE_IN_COMM();
 1158              		.loc 1 201 13 discriminator 9 view .LVU256
 201:src/m5_app.c  ****             ESOS_TASK_SIGNAL_AVAILABLE_IN_COMM();
 1159              		.loc 1 201 13 discriminator 9 view .LVU257
 201:src/m5_app.c  ****             ESOS_TASK_SIGNAL_AVAILABLE_IN_COMM();
 1160              		.loc 1 201 13 discriminator 9 view .LVU258
 1161 03ac C923     		movs	r3, #201
 1162 03ae 2380     		strh	r3, [r4]	@ movhi
 1163              	.L104:
 201:src/m5_app.c  ****             ESOS_TASK_SIGNAL_AVAILABLE_IN_COMM();
 1164              		.loc 1 201 13 discriminator 1 view .LVU259
 201:src/m5_app.c  ****             ESOS_TASK_SIGNAL_AVAILABLE_IN_COMM();
 1165              		.loc 1 201 13 discriminator 1 view .LVU260
 1166 03b0 A578     		ldrb	r5, [r4, #2]	@ zero_extendqisi2
 1167 03b2 15F00405 		ands	r5, r5, #4
 1168 03b6 39D1     		bne	.L279
 201:src/m5_app.c  ****             ESOS_TASK_SIGNAL_AVAILABLE_IN_COMM();
 1169              		.loc 1 201 13 discriminator 3 view .LVU261
 1170 03b8 0122     		movs	r2, #1
 1171 03ba 2849     		ldr	r1, .L316+28
 1172 03bc 2448     		ldr	r0, .L316+16
 1173 03be FFF7FEFF 		bl	__esos_getBuffer
 1174              	.LVL35:
 1175 03c2 0228     		cmp	r0, #2
 1176 03c4 37D9     		bls	.L125
 201:src/m5_app.c  ****             ESOS_TASK_SIGNAL_AVAILABLE_IN_COMM();
 1177              		.loc 1 201 13 discriminator 4 view .LVU262
 1178 03c6 A378     		ldrb	r3, [r4, #2]	@ zero_extendqisi2
 1179 03c8 23F00103 		bic	r3, r3, #1
 1180 03cc A370     		strb	r3, [r4, #2]
 1181              	.L126:
ARM GAS  /tmp/ccZiTkxd.s 			page 31


 201:src/m5_app.c  ****             ESOS_TASK_SIGNAL_AVAILABLE_IN_COMM();
 1182              		.loc 1 201 13 discriminator 7 view .LVU263
 1183 03ce A378     		ldrb	r3, [r4, #2]	@ zero_extendqisi2
 1184 03d0 13F0010F 		tst	r3, #1
 1185 03d4 40F03A87 		bne	.L112
 201:src/m5_app.c  ****             ESOS_TASK_SIGNAL_AVAILABLE_IN_COMM();
 1186              		.loc 1 201 13 discriminator 9 view .LVU264
 201:src/m5_app.c  ****             ESOS_TASK_SIGNAL_AVAILABLE_IN_COMM();
 1187              		.loc 1 201 13 discriminator 9 view .LVU265
 202:src/m5_app.c  ****          
 1188              		.loc 1 202 13 discriminator 9 view .LVU266
 1189 03d8 1C4A     		ldr	r2, .L316+12
 1190 03da 1368     		ldr	r3, [r2]
 1191 03dc 23F00803 		bic	r3, r3, #8
 1192 03e0 1360     		str	r3, [r2]
 204:src/m5_app.c  ****             if(chooseLED == 0)
 1193              		.loc 1 204 13 discriminator 9 view .LVU267
 204:src/m5_app.c  ****             if(chooseLED == 0)
 1194              		.loc 1 204 23 is_stmt 0 discriminator 9 view .LVU268
 1195 03e2 1E49     		ldr	r1, .L316+28
 1196 03e4 0B78     		ldrb	r3, [r1]	@ zero_extendqisi2
 1197 03e6 1E4A     		ldr	r2, .L316+32
 1198 03e8 A2FB0302 		umull	r0, r2, r2, r3
 1199 03ec 5209     		lsrs	r2, r2, #5
 1200 03ee 02EB4202 		add	r2, r2, r2, lsl #1
 1201 03f2 A3EB0213 		sub	r3, r3, r2, lsl #4
 1202 03f6 DBB2     		uxtb	r3, r3
 1203 03f8 0B70     		strb	r3, [r1]
 205:src/m5_app.c  ****             {
 1204              		.loc 1 205 13 is_stmt 1 discriminator 9 view .LVU269
 205:src/m5_app.c  ****             {
 1205              		.loc 1 205 15 is_stmt 0 discriminator 9 view .LVU270
 1206 03fa 002B     		cmp	r3, #0
 1207 03fc 75D0     		beq	.L127
 219:src/m5_app.c  ****             {
 1208              		.loc 1 219 18 is_stmt 1 view .LVU271
 219:src/m5_app.c  ****             {
 1209              		.loc 1 219 20 is_stmt 0 view .LVU272
 1210 03fe 012B     		cmp	r3, #1
 1211 0400 00F00981 		beq	.L137
 232:src/m5_app.c  ****             {
 1212              		.loc 1 232 18 is_stmt 1 view .LVU273
 232:src/m5_app.c  ****             {
 1213              		.loc 1 232 20 is_stmt 0 view .LVU274
 1214 0404 022B     		cmp	r3, #2
 1215 0406 00F0AA81 		beq	.L146
 245:src/m5_app.c  ****             {
 1216              		.loc 1 245 18 is_stmt 1 view .LVU275
 245:src/m5_app.c  ****             {
 1217              		.loc 1 245 20 is_stmt 0 view .LVU276
 1218 040a 032B     		cmp	r3, #3
 1219 040c 00F02A82 		beq	.L155
 258:src/m5_app.c  ****             {
 1220              		.loc 1 258 18 is_stmt 1 view .LVU277
 258:src/m5_app.c  ****             {
 1221              		.loc 1 258 20 is_stmt 0 view .LVU278
 1222 0410 042B     		cmp	r3, #4
ARM GAS  /tmp/ccZiTkxd.s 			page 32


 1223 0412 00F0BC82 		beq	.L164
 1224 0416 00F062BD 		b	.L67
 1225              	.L278:
 200:src/m5_app.c  ****             ESOS_TASK_WAIT_ON_GET_UINT8(chooseLED);
 1226              		.loc 1 200 13 is_stmt 1 discriminator 2 view .LVU279
 1227 041a 0423     		movs	r3, #4
 1228 041c A370     		strb	r3, [r4, #2]
 200:src/m5_app.c  ****             ESOS_TASK_WAIT_ON_GET_UINT8(chooseLED);
 1229              		.loc 1 200 13 discriminator 2 view .LVU280
 1230 041e 0325     		movs	r5, #3
 1231 0420 00F014BF 		b	.L112
 1232              	.L122:
 200:src/m5_app.c  ****             ESOS_TASK_WAIT_ON_GET_UINT8(chooseLED);
 1233              		.loc 1 200 13 discriminator 5 view .LVU281
 1234 0424 43F00103 		orr	r3, r3, #1
 1235 0428 A370     		strb	r3, [r4, #2]
 1236 042a B2E7     		b	.L123
 1237              	.L279:
 201:src/m5_app.c  ****             ESOS_TASK_SIGNAL_AVAILABLE_IN_COMM();
 1238              		.loc 1 201 13 discriminator 2 view .LVU282
 1239 042c 0423     		movs	r3, #4
 1240 042e A370     		strb	r3, [r4, #2]
 201:src/m5_app.c  ****             ESOS_TASK_SIGNAL_AVAILABLE_IN_COMM();
 1241              		.loc 1 201 13 discriminator 2 view .LVU283
 1242 0430 0325     		movs	r5, #3
 1243 0432 00F00BBF 		b	.L112
 1244              	.L125:
 201:src/m5_app.c  ****             ESOS_TASK_SIGNAL_AVAILABLE_IN_COMM();
 1245              		.loc 1 201 13 discriminator 5 view .LVU284
 1246 0436 A378     		ldrb	r3, [r4, #2]	@ zero_extendqisi2
 1247 0438 43F00103 		orr	r3, r3, #1
 1248 043c A370     		strb	r3, [r4, #2]
 1249 043e C6E7     		b	.L126
 1250              	.L317:
 1251              		.align	2
 1252              	.L316:
 1253 0440 00000000 		.word	.LANCHOR7
 1254 0444 00000000 		.word	.LANCHOR6
 1255 0448 00000000 		.word	.LANCHOR5
 1256 044c 00000000 		.word	__esos_u32SystemFlags
 1257 0450 00000000 		.word	__stChildTaskRx
 1258 0454 00000000 		.word	.LANCHOR8
 1259 0458 00080048 		.word	1207961600
 1260 045c 00000000 		.word	.LANCHOR9
 1261 0460 ABAAAAAA 		.word	-1431655765
 1262              	.L135:
 210:src/m5_app.c  ****                 ESOS_TASK_WAIT_ON_GET_UINT8(digit);
 1263              		.loc 1 210 17 view .LVU285
 210:src/m5_app.c  ****                 ESOS_TASK_WAIT_ON_GET_UINT8(digit);
 1264              		.loc 1 210 17 view .LVU286
 1265 0464 D223     		movs	r3, #210
 1266 0466 2380     		strh	r3, [r4]	@ movhi
 1267              	.L103:
 210:src/m5_app.c  ****                 ESOS_TASK_WAIT_ON_GET_UINT8(digit);
 1268              		.loc 1 210 17 discriminator 1 view .LVU287
 210:src/m5_app.c  ****                 ESOS_TASK_WAIT_ON_GET_UINT8(digit);
 1269              		.loc 1 210 17 discriminator 1 view .LVU288
ARM GAS  /tmp/ccZiTkxd.s 			page 33


 1270 0468 A378     		ldrb	r3, [r4, #2]	@ zero_extendqisi2
 1271 046a 13F00405 		ands	r5, r3, #4
 1272 046e 7CD1     		bne	.L280
 210:src/m5_app.c  ****                 ESOS_TASK_WAIT_ON_GET_UINT8(digit);
 1273              		.loc 1 210 17 discriminator 3 view .LVU289
 1274 0470 8F4A     		ldr	r2, .L318
 1275 0472 1268     		ldr	r2, [r2]
 1276 0474 12F0080F 		tst	r2, #8
 1277 0478 7CD1     		bne	.L130
 210:src/m5_app.c  ****                 ESOS_TASK_WAIT_ON_GET_UINT8(digit);
 1278              		.loc 1 210 17 discriminator 4 view .LVU290
 1279 047a 23F00103 		bic	r3, r3, #1
 1280 047e A370     		strb	r3, [r4, #2]
 1281              	.L131:
 210:src/m5_app.c  ****                 ESOS_TASK_WAIT_ON_GET_UINT8(digit);
 1282              		.loc 1 210 17 discriminator 7 view .LVU291
 1283 0480 A378     		ldrb	r3, [r4, #2]	@ zero_extendqisi2
 1284 0482 13F0010F 		tst	r3, #1
 1285 0486 40F0E186 		bne	.L112
 210:src/m5_app.c  ****                 ESOS_TASK_WAIT_ON_GET_UINT8(digit);
 1286              		.loc 1 210 17 discriminator 9 view .LVU292
 210:src/m5_app.c  ****                 ESOS_TASK_WAIT_ON_GET_UINT8(digit);
 1287              		.loc 1 210 17 discriminator 9 view .LVU293
 1288 048a 894A     		ldr	r2, .L318
 1289 048c 1368     		ldr	r3, [r2]
 1290 048e 43F00803 		orr	r3, r3, #8
 1291 0492 1360     		str	r3, [r2]
 211:src/m5_app.c  ****                 ESOS_TASK_SIGNAL_AVAILABLE_IN_COMM();
 1292              		.loc 1 211 17 discriminator 9 view .LVU294
 211:src/m5_app.c  ****                 ESOS_TASK_SIGNAL_AVAILABLE_IN_COMM();
 1293              		.loc 1 211 17 discriminator 9 view .LVU295
 1294 0494 874B     		ldr	r3, .L318+4
 1295 0496 0022     		movs	r2, #0
 1296 0498 1A80     		strh	r2, [r3]	@ movhi
 211:src/m5_app.c  ****                 ESOS_TASK_SIGNAL_AVAILABLE_IN_COMM();
 1297              		.loc 1 211 17 discriminator 9 view .LVU296
 211:src/m5_app.c  ****                 ESOS_TASK_SIGNAL_AVAILABLE_IN_COMM();
 1298              		.loc 1 211 17 discriminator 9 view .LVU297
 211:src/m5_app.c  ****                 ESOS_TASK_SIGNAL_AVAILABLE_IN_COMM();
 1299              		.loc 1 211 17 discriminator 9 view .LVU298
 211:src/m5_app.c  ****                 ESOS_TASK_SIGNAL_AVAILABLE_IN_COMM();
 1300              		.loc 1 211 17 discriminator 9 view .LVU299
 1301 049a D323     		movs	r3, #211
 1302 049c 2380     		strh	r3, [r4]	@ movhi
 1303              	.L102:
 211:src/m5_app.c  ****                 ESOS_TASK_SIGNAL_AVAILABLE_IN_COMM();
 1304              		.loc 1 211 17 discriminator 1 view .LVU300
 211:src/m5_app.c  ****                 ESOS_TASK_SIGNAL_AVAILABLE_IN_COMM();
 1305              		.loc 1 211 17 discriminator 1 view .LVU301
 1306 049e A578     		ldrb	r5, [r4, #2]	@ zero_extendqisi2
 1307 04a0 15F00405 		ands	r5, r5, #4
 1308 04a4 6AD1     		bne	.L281
 211:src/m5_app.c  ****                 ESOS_TASK_SIGNAL_AVAILABLE_IN_COMM();
 1309              		.loc 1 211 17 discriminator 3 view .LVU302
 1310 04a6 0122     		movs	r2, #1
 1311 04a8 8349     		ldr	r1, .L318+8
 1312 04aa 8248     		ldr	r0, .L318+4
ARM GAS  /tmp/ccZiTkxd.s 			page 34


 1313 04ac FFF7FEFF 		bl	__esos_getBuffer
 1314              	.LVL36:
 1315 04b0 0228     		cmp	r0, #2
 1316 04b2 68D9     		bls	.L133
 211:src/m5_app.c  ****                 ESOS_TASK_SIGNAL_AVAILABLE_IN_COMM();
 1317              		.loc 1 211 17 discriminator 4 view .LVU303
 1318 04b4 A378     		ldrb	r3, [r4, #2]	@ zero_extendqisi2
 1319 04b6 23F00103 		bic	r3, r3, #1
 1320 04ba A370     		strb	r3, [r4, #2]
 1321              	.L134:
 211:src/m5_app.c  ****                 ESOS_TASK_SIGNAL_AVAILABLE_IN_COMM();
 1322              		.loc 1 211 17 discriminator 7 view .LVU304
 1323 04bc A378     		ldrb	r3, [r4, #2]	@ zero_extendqisi2
 1324 04be 13F0010F 		tst	r3, #1
 1325 04c2 40F0C386 		bne	.L112
 211:src/m5_app.c  ****                 ESOS_TASK_SIGNAL_AVAILABLE_IN_COMM();
 1326              		.loc 1 211 17 discriminator 9 view .LVU305
 211:src/m5_app.c  ****                 ESOS_TASK_SIGNAL_AVAILABLE_IN_COMM();
 1327              		.loc 1 211 17 discriminator 9 view .LVU306
 212:src/m5_app.c  ****                 sum[chooseLED][i] = digit; 
 1328              		.loc 1 212 17 discriminator 9 view .LVU307
 1329 04c6 7A4A     		ldr	r2, .L318
 1330 04c8 1368     		ldr	r3, [r2]
 1331 04ca 23F00803 		bic	r3, r3, #8
 1332 04ce 1360     		str	r3, [r2]
 213:src/m5_app.c  ****                 i++;
 1333              		.loc 1 213 17 discriminator 9 view .LVU308
 213:src/m5_app.c  ****                 i++;
 1334              		.loc 1 213 31 is_stmt 0 discriminator 9 view .LVU309
 1335 04d0 7A4B     		ldr	r3, .L318+12
 1336 04d2 1A78     		ldrb	r2, [r3]	@ zero_extendqisi2
 1337 04d4 7A49     		ldr	r1, .L318+16
 1338 04d6 0B78     		ldrb	r3, [r1]	@ zero_extendqisi2
 213:src/m5_app.c  ****                 i++;
 1339              		.loc 1 213 35 discriminator 9 view .LVU310
 1340 04d8 03EB8202 		add	r2, r3, r2, lsl #2
 1341 04dc 7648     		ldr	r0, .L318+8
 1342 04de 0578     		ldrb	r5, [r0]	@ zero_extendqisi2
 1343 04e0 7848     		ldr	r0, .L318+20
 1344 04e2 40F82250 		str	r5, [r0, r2, lsl #2]
 214:src/m5_app.c  **** 
 1345              		.loc 1 214 17 is_stmt 1 discriminator 9 view .LVU311
 214:src/m5_app.c  **** 
 1346              		.loc 1 214 18 is_stmt 0 discriminator 9 view .LVU312
 1347 04e6 0133     		adds	r3, r3, #1
 1348 04e8 0B70     		strb	r3, [r1]
 1349              	.L127:
 208:src/m5_app.c  ****               {
 1350              		.loc 1 208 21 is_stmt 1 view .LVU313
 208:src/m5_app.c  ****               {
 1351              		.loc 1 208 23 is_stmt 0 view .LVU314
 1352 04ea 754B     		ldr	r3, .L318+16
 1353 04ec 1B78     		ldrb	r3, [r3]	@ zero_extendqisi2
 208:src/m5_app.c  ****               {
 1354              		.loc 1 208 21 view .LVU315
 1355 04ee 032B     		cmp	r3, #3
 1356 04f0 B8D9     		bls	.L135
ARM GAS  /tmp/ccZiTkxd.s 			page 35


 217:src/m5_app.c  ****             }
 1357              		.loc 1 217 15 is_stmt 1 view .LVU316
 217:src/m5_app.c  ****             }
 1358              		.loc 1 217 49 is_stmt 0 view .LVU317
 1359 04f2 724B     		ldr	r3, .L318+12
 1360 04f4 1878     		ldrb	r0, [r3]	@ zero_extendqisi2
 1361 04f6 734B     		ldr	r3, .L318+20
 1362 04f8 0201     		lsls	r2, r0, #4
 1363 04fa 03EB0010 		add	r0, r3, r0, lsl #4
 1364 04fe 9D58     		ldr	r5, [r3, r2]
 217:src/m5_app.c  ****             }
 1365              		.loc 1 217 52 view .LVU318
 1366 0500 714A     		ldr	r2, .L318+24
 1367 0502 A2FB0513 		umull	r1, r3, r2, r5
 1368 0506 5909     		lsrs	r1, r3, #5
 1369 0508 01EB4103 		add	r3, r1, r1, lsl #1
 1370 050c A5EB0311 		sub	r1, r5, r3, lsl #4
 217:src/m5_app.c  ****             }
 1371              		.loc 1 217 81 view .LVU319
 1372 0510 4568     		ldr	r5, [r0, #4]
 217:src/m5_app.c  ****             }
 1373              		.loc 1 217 84 view .LVU320
 1374 0512 A2FB05C3 		umull	ip, r3, r2, r5
 1375 0516 5B09     		lsrs	r3, r3, #5
 1376 0518 03EB4303 		add	r3, r3, r3, lsl #1
 1377 051c A5EB0313 		sub	r3, r5, r3, lsl #4
 217:src/m5_app.c  ****             }
 1378              		.loc 1 217 88 view .LVU321
 1379 0520 6425     		movs	r5, #100
 1380 0522 05FB03F3 		mul	r3, r5, r3
 217:src/m5_app.c  ****             }
 1381              		.loc 1 217 63 view .LVU322
 1382 0526 4FF47A75 		mov	r5, #1000
 1383 052a 05FB0133 		mla	r3, r5, r1, r3
 217:src/m5_app.c  ****             }
 1384              		.loc 1 217 112 view .LVU323
 1385 052e 8568     		ldr	r5, [r0, #8]
 217:src/m5_app.c  ****             }
 1386              		.loc 1 217 115 view .LVU324
 1387 0530 A2FB05C1 		umull	ip, r1, r2, r5
 1388 0534 4909     		lsrs	r1, r1, #5
 1389 0536 01EB4101 		add	r1, r1, r1, lsl #1
 1390 053a A5EB0111 		sub	r1, r5, r1, lsl #4
 217:src/m5_app.c  ****             }
 1391              		.loc 1 217 119 view .LVU325
 1392 053e 01EB8101 		add	r1, r1, r1, lsl #2
 217:src/m5_app.c  ****             }
 1393              		.loc 1 217 94 view .LVU326
 1394 0542 03EB4103 		add	r3, r3, r1, lsl #1
 217:src/m5_app.c  ****             }
 1395              		.loc 1 217 142 view .LVU327
 1396 0546 C168     		ldr	r1, [r0, #12]
 217:src/m5_app.c  ****             }
 1397              		.loc 1 217 145 view .LVU328
 1398 0548 A2FB0102 		umull	r0, r2, r2, r1
 1399 054c 5209     		lsrs	r2, r2, #5
 1400 054e 02EB4202 		add	r2, r2, r2, lsl #1
ARM GAS  /tmp/ccZiTkxd.s 			page 36


 1401 0552 A1EB0212 		sub	r2, r1, r2, lsl #4
 217:src/m5_app.c  ****             }
 1402              		.loc 1 217 124 view .LVU329
 1403 0556 1344     		add	r3, r3, r2
 217:src/m5_app.c  ****             }
 1404              		.loc 1 217 31 view .LVU330
 1405 0558 5C4A     		ldr	r2, .L318+28
 1406 055a 1360     		str	r3, [r2]
 1407              	.L136:
 337:src/m5_app.c  ****           i = 0;
 1408              		.loc 1 337 11 is_stmt 1 view .LVU331
 337:src/m5_app.c  ****           i = 0;
 1409              		.loc 1 337 17 is_stmt 0 view .LVU332
 1410 055c 0023     		movs	r3, #0
 1411 055e 5C4A     		ldr	r2, .L318+32
 1412 0560 1370     		strb	r3, [r2]
 338:src/m5_app.c  **** 
 1413              		.loc 1 338 11 is_stmt 1 view .LVU333
 338:src/m5_app.c  **** 
 1414              		.loc 1 338 13 is_stmt 0 view .LVU334
 1415 0562 574A     		ldr	r2, .L318+16
 1416 0564 1370     		strb	r3, [r2]
 1417 0566 00F0A2BC 		b	.L222
 1418              	.L280:
 210:src/m5_app.c  ****                 ESOS_TASK_WAIT_ON_GET_UINT8(digit);
 1419              		.loc 1 210 17 is_stmt 1 discriminator 2 view .LVU335
 1420 056a 0423     		movs	r3, #4
 1421 056c A370     		strb	r3, [r4, #2]
 210:src/m5_app.c  ****                 ESOS_TASK_WAIT_ON_GET_UINT8(digit);
 1422              		.loc 1 210 17 discriminator 2 view .LVU336
 1423 056e 0325     		movs	r5, #3
 1424 0570 00F06CBE 		b	.L112
 1425              	.L130:
 210:src/m5_app.c  ****                 ESOS_TASK_WAIT_ON_GET_UINT8(digit);
 1426              		.loc 1 210 17 discriminator 5 view .LVU337
 1427 0574 43F00103 		orr	r3, r3, #1
 1428 0578 A370     		strb	r3, [r4, #2]
 1429 057a 81E7     		b	.L131
 1430              	.L281:
 211:src/m5_app.c  ****                 ESOS_TASK_SIGNAL_AVAILABLE_IN_COMM();
 1431              		.loc 1 211 17 discriminator 2 view .LVU338
 1432 057c 0423     		movs	r3, #4
 1433 057e A370     		strb	r3, [r4, #2]
 211:src/m5_app.c  ****                 ESOS_TASK_SIGNAL_AVAILABLE_IN_COMM();
 1434              		.loc 1 211 17 discriminator 2 view .LVU339
 1435 0580 0325     		movs	r5, #3
 1436 0582 00F063BE 		b	.L112
 1437              	.L133:
 211:src/m5_app.c  ****                 ESOS_TASK_SIGNAL_AVAILABLE_IN_COMM();
 1438              		.loc 1 211 17 discriminator 5 view .LVU340
 1439 0586 A378     		ldrb	r3, [r4, #2]	@ zero_extendqisi2
 1440 0588 43F00103 		orr	r3, r3, #1
 1441 058c A370     		strb	r3, [r4, #2]
 1442 058e 95E7     		b	.L134
 1443              	.L145:
 223:src/m5_app.c  ****                 ESOS_TASK_WAIT_ON_GET_UINT8(digit);
 1444              		.loc 1 223 17 view .LVU341
ARM GAS  /tmp/ccZiTkxd.s 			page 37


 223:src/m5_app.c  ****                 ESOS_TASK_WAIT_ON_GET_UINT8(digit);
 1445              		.loc 1 223 17 view .LVU342
 1446 0590 DF23     		movs	r3, #223
 1447 0592 2380     		strh	r3, [r4]	@ movhi
 1448              	.L101:
 223:src/m5_app.c  ****                 ESOS_TASK_WAIT_ON_GET_UINT8(digit);
 1449              		.loc 1 223 17 discriminator 1 view .LVU343
 223:src/m5_app.c  ****                 ESOS_TASK_WAIT_ON_GET_UINT8(digit);
 1450              		.loc 1 223 17 discriminator 1 view .LVU344
 1451 0594 A378     		ldrb	r3, [r4, #2]	@ zero_extendqisi2
 1452 0596 13F00405 		ands	r5, r3, #4
 1453 059a 76D1     		bne	.L282
 223:src/m5_app.c  ****                 ESOS_TASK_WAIT_ON_GET_UINT8(digit);
 1454              		.loc 1 223 17 discriminator 3 view .LVU345
 1455 059c 444A     		ldr	r2, .L318
 1456 059e 1268     		ldr	r2, [r2]
 1457 05a0 12F0080F 		tst	r2, #8
 1458 05a4 76D1     		bne	.L140
 223:src/m5_app.c  ****                 ESOS_TASK_WAIT_ON_GET_UINT8(digit);
 1459              		.loc 1 223 17 discriminator 4 view .LVU346
 1460 05a6 23F00103 		bic	r3, r3, #1
 1461 05aa A370     		strb	r3, [r4, #2]
 1462              	.L141:
 223:src/m5_app.c  ****                 ESOS_TASK_WAIT_ON_GET_UINT8(digit);
 1463              		.loc 1 223 17 discriminator 7 view .LVU347
 1464 05ac A378     		ldrb	r3, [r4, #2]	@ zero_extendqisi2
 1465 05ae 13F0010F 		tst	r3, #1
 1466 05b2 40F04B86 		bne	.L112
 223:src/m5_app.c  ****                 ESOS_TASK_WAIT_ON_GET_UINT8(digit);
 1467              		.loc 1 223 17 discriminator 9 view .LVU348
 223:src/m5_app.c  ****                 ESOS_TASK_WAIT_ON_GET_UINT8(digit);
 1468              		.loc 1 223 17 discriminator 9 view .LVU349
 1469 05b6 3E4A     		ldr	r2, .L318
 1470 05b8 1368     		ldr	r3, [r2]
 1471 05ba 43F00803 		orr	r3, r3, #8
 1472 05be 1360     		str	r3, [r2]
 224:src/m5_app.c  ****                 ESOS_TASK_SIGNAL_AVAILABLE_IN_COMM();
 1473              		.loc 1 224 17 discriminator 9 view .LVU350
 224:src/m5_app.c  ****                 ESOS_TASK_SIGNAL_AVAILABLE_IN_COMM();
 1474              		.loc 1 224 17 discriminator 9 view .LVU351
 1475 05c0 3C4B     		ldr	r3, .L318+4
 1476 05c2 0022     		movs	r2, #0
 1477 05c4 1A80     		strh	r2, [r3]	@ movhi
 224:src/m5_app.c  ****                 ESOS_TASK_SIGNAL_AVAILABLE_IN_COMM();
 1478              		.loc 1 224 17 discriminator 9 view .LVU352
 224:src/m5_app.c  ****                 ESOS_TASK_SIGNAL_AVAILABLE_IN_COMM();
 1479              		.loc 1 224 17 discriminator 9 view .LVU353
 224:src/m5_app.c  ****                 ESOS_TASK_SIGNAL_AVAILABLE_IN_COMM();
 1480              		.loc 1 224 17 discriminator 9 view .LVU354
 224:src/m5_app.c  ****                 ESOS_TASK_SIGNAL_AVAILABLE_IN_COMM();
 1481              		.loc 1 224 17 discriminator 9 view .LVU355
 1482 05c6 E023     		movs	r3, #224
 1483 05c8 2380     		strh	r3, [r4]	@ movhi
 1484              	.L100:
 224:src/m5_app.c  ****                 ESOS_TASK_SIGNAL_AVAILABLE_IN_COMM();
 1485              		.loc 1 224 17 discriminator 1 view .LVU356
 224:src/m5_app.c  ****                 ESOS_TASK_SIGNAL_AVAILABLE_IN_COMM();
ARM GAS  /tmp/ccZiTkxd.s 			page 38


 1486              		.loc 1 224 17 discriminator 1 view .LVU357
 1487 05ca A578     		ldrb	r5, [r4, #2]	@ zero_extendqisi2
 1488 05cc 15F00405 		ands	r5, r5, #4
 1489 05d0 64D1     		bne	.L283
 224:src/m5_app.c  ****                 ESOS_TASK_SIGNAL_AVAILABLE_IN_COMM();
 1490              		.loc 1 224 17 discriminator 3 view .LVU358
 1491 05d2 0122     		movs	r2, #1
 1492 05d4 3849     		ldr	r1, .L318+8
 1493 05d6 3748     		ldr	r0, .L318+4
 1494 05d8 FFF7FEFF 		bl	__esos_getBuffer
 1495              	.LVL37:
 1496 05dc 0228     		cmp	r0, #2
 1497 05de 62D9     		bls	.L143
 224:src/m5_app.c  ****                 ESOS_TASK_SIGNAL_AVAILABLE_IN_COMM();
 1498              		.loc 1 224 17 discriminator 4 view .LVU359
 1499 05e0 A378     		ldrb	r3, [r4, #2]	@ zero_extendqisi2
 1500 05e2 23F00103 		bic	r3, r3, #1
 1501 05e6 A370     		strb	r3, [r4, #2]
 1502              	.L144:
 224:src/m5_app.c  ****                 ESOS_TASK_SIGNAL_AVAILABLE_IN_COMM();
 1503              		.loc 1 224 17 discriminator 7 view .LVU360
 1504 05e8 A378     		ldrb	r3, [r4, #2]	@ zero_extendqisi2
 1505 05ea 13F0010F 		tst	r3, #1
 1506 05ee 40F02D86 		bne	.L112
 224:src/m5_app.c  ****                 ESOS_TASK_SIGNAL_AVAILABLE_IN_COMM();
 1507              		.loc 1 224 17 discriminator 9 view .LVU361
 224:src/m5_app.c  ****                 ESOS_TASK_SIGNAL_AVAILABLE_IN_COMM();
 1508              		.loc 1 224 17 discriminator 9 view .LVU362
 225:src/m5_app.c  ****                 sum[chooseLED][i] = digit; 
 1509              		.loc 1 225 17 discriminator 9 view .LVU363
 1510 05f2 2F4A     		ldr	r2, .L318
 1511 05f4 1368     		ldr	r3, [r2]
 1512 05f6 23F00803 		bic	r3, r3, #8
 1513 05fa 1360     		str	r3, [r2]
 226:src/m5_app.c  ****                 i++;
 1514              		.loc 1 226 17 discriminator 9 view .LVU364
 226:src/m5_app.c  ****                 i++;
 1515              		.loc 1 226 31 is_stmt 0 discriminator 9 view .LVU365
 1516 05fc 2F4B     		ldr	r3, .L318+12
 1517 05fe 1A78     		ldrb	r2, [r3]	@ zero_extendqisi2
 1518 0600 2F49     		ldr	r1, .L318+16
 1519 0602 0B78     		ldrb	r3, [r1]	@ zero_extendqisi2
 226:src/m5_app.c  ****                 i++;
 1520              		.loc 1 226 35 discriminator 9 view .LVU366
 1521 0604 03EB8202 		add	r2, r3, r2, lsl #2
 1522 0608 2B48     		ldr	r0, .L318+8
 1523 060a 0578     		ldrb	r5, [r0]	@ zero_extendqisi2
 1524 060c 2D48     		ldr	r0, .L318+20
 1525 060e 40F82250 		str	r5, [r0, r2, lsl #2]
 227:src/m5_app.c  **** 
 1526              		.loc 1 227 17 is_stmt 1 discriminator 9 view .LVU367
 227:src/m5_app.c  **** 
 1527              		.loc 1 227 18 is_stmt 0 discriminator 9 view .LVU368
 1528 0612 0133     		adds	r3, r3, #1
 1529 0614 0B70     		strb	r3, [r1]
 1530              	.L137:
 221:src/m5_app.c  ****               {
ARM GAS  /tmp/ccZiTkxd.s 			page 39


 1531              		.loc 1 221 21 is_stmt 1 view .LVU369
 221:src/m5_app.c  ****               {
 1532              		.loc 1 221 23 is_stmt 0 view .LVU370
 1533 0616 2A4B     		ldr	r3, .L318+16
 1534 0618 1B78     		ldrb	r3, [r3]	@ zero_extendqisi2
 221:src/m5_app.c  ****               {
 1535              		.loc 1 221 21 view .LVU371
 1536 061a 032B     		cmp	r3, #3
 1537 061c B8D9     		bls	.L145
 230:src/m5_app.c  ****             }
 1538              		.loc 1 230 15 is_stmt 1 view .LVU372
 230:src/m5_app.c  ****             }
 1539              		.loc 1 230 49 is_stmt 0 view .LVU373
 1540 061e 274B     		ldr	r3, .L318+12
 1541 0620 1878     		ldrb	r0, [r3]	@ zero_extendqisi2
 1542 0622 284B     		ldr	r3, .L318+20
 1543 0624 0201     		lsls	r2, r0, #4
 1544 0626 03EB0010 		add	r0, r3, r0, lsl #4
 1545 062a 9D58     		ldr	r5, [r3, r2]
 230:src/m5_app.c  ****             }
 1546              		.loc 1 230 52 view .LVU374
 1547 062c 264A     		ldr	r2, .L318+24
 1548 062e A2FB0513 		umull	r1, r3, r2, r5
 1549 0632 5909     		lsrs	r1, r3, #5
 1550 0634 01EB4103 		add	r3, r1, r1, lsl #1
 1551 0638 A5EB0311 		sub	r1, r5, r3, lsl #4
 230:src/m5_app.c  ****             }
 1552              		.loc 1 230 81 view .LVU375
 1553 063c 4568     		ldr	r5, [r0, #4]
 230:src/m5_app.c  ****             }
 1554              		.loc 1 230 84 view .LVU376
 1555 063e A2FB05C3 		umull	ip, r3, r2, r5
 1556 0642 5B09     		lsrs	r3, r3, #5
 1557 0644 03EB4303 		add	r3, r3, r3, lsl #1
 1558 0648 A5EB0313 		sub	r3, r5, r3, lsl #4
 230:src/m5_app.c  ****             }
 1559              		.loc 1 230 88 view .LVU377
 1560 064c 6425     		movs	r5, #100
 1561 064e 05FB03F3 		mul	r3, r5, r3
 230:src/m5_app.c  ****             }
 1562              		.loc 1 230 63 view .LVU378
 1563 0652 4FF47A75 		mov	r5, #1000
 1564 0656 05FB0133 		mla	r3, r5, r1, r3
 230:src/m5_app.c  ****             }
 1565              		.loc 1 230 112 view .LVU379
 1566 065a 8568     		ldr	r5, [r0, #8]
 230:src/m5_app.c  ****             }
 1567              		.loc 1 230 115 view .LVU380
 1568 065c A2FB05C1 		umull	ip, r1, r2, r5
 1569 0660 4909     		lsrs	r1, r1, #5
 1570 0662 01EB4101 		add	r1, r1, r1, lsl #1
 1571 0666 A5EB0111 		sub	r1, r5, r1, lsl #4
 230:src/m5_app.c  ****             }
 1572              		.loc 1 230 119 view .LVU381
 1573 066a 01EB8101 		add	r1, r1, r1, lsl #2
 230:src/m5_app.c  ****             }
 1574              		.loc 1 230 94 view .LVU382
ARM GAS  /tmp/ccZiTkxd.s 			page 40


 1575 066e 03EB4103 		add	r3, r3, r1, lsl #1
 230:src/m5_app.c  ****             }
 1576              		.loc 1 230 142 view .LVU383
 1577 0672 C168     		ldr	r1, [r0, #12]
 230:src/m5_app.c  ****             }
 1578              		.loc 1 230 145 view .LVU384
 1579 0674 A2FB0102 		umull	r0, r2, r2, r1
 1580 0678 5209     		lsrs	r2, r2, #5
 1581 067a 02EB4202 		add	r2, r2, r2, lsl #1
 1582 067e A1EB0212 		sub	r2, r1, r2, lsl #4
 230:src/m5_app.c  ****             }
 1583              		.loc 1 230 124 view .LVU385
 1584 0682 1344     		add	r3, r3, r2
 230:src/m5_app.c  ****             }
 1585              		.loc 1 230 31 view .LVU386
 1586 0684 134A     		ldr	r2, .L318+36
 1587 0686 1360     		str	r3, [r2]
 1588 0688 68E7     		b	.L136
 1589              	.L282:
 223:src/m5_app.c  ****                 ESOS_TASK_WAIT_ON_GET_UINT8(digit);
 1590              		.loc 1 223 17 is_stmt 1 discriminator 2 view .LVU387
 1591 068a 0423     		movs	r3, #4
 1592 068c A370     		strb	r3, [r4, #2]
 223:src/m5_app.c  ****                 ESOS_TASK_WAIT_ON_GET_UINT8(digit);
 1593              		.loc 1 223 17 discriminator 2 view .LVU388
 1594 068e 0325     		movs	r5, #3
 1595 0690 00F0DCBD 		b	.L112
 1596              	.L140:
 223:src/m5_app.c  ****                 ESOS_TASK_WAIT_ON_GET_UINT8(digit);
 1597              		.loc 1 223 17 discriminator 5 view .LVU389
 1598 0694 43F00103 		orr	r3, r3, #1
 1599 0698 A370     		strb	r3, [r4, #2]
 1600 069a 87E7     		b	.L141
 1601              	.L283:
 224:src/m5_app.c  ****                 ESOS_TASK_SIGNAL_AVAILABLE_IN_COMM();
 1602              		.loc 1 224 17 discriminator 2 view .LVU390
 1603 069c 0423     		movs	r3, #4
 1604 069e A370     		strb	r3, [r4, #2]
 224:src/m5_app.c  ****                 ESOS_TASK_SIGNAL_AVAILABLE_IN_COMM();
 1605              		.loc 1 224 17 discriminator 2 view .LVU391
 1606 06a0 0325     		movs	r5, #3
 1607 06a2 00F0D3BD 		b	.L112
 1608              	.L143:
 224:src/m5_app.c  ****                 ESOS_TASK_SIGNAL_AVAILABLE_IN_COMM();
 1609              		.loc 1 224 17 discriminator 5 view .LVU392
 1610 06a6 A378     		ldrb	r3, [r4, #2]	@ zero_extendqisi2
 1611 06a8 43F00103 		orr	r3, r3, #1
 1612 06ac A370     		strb	r3, [r4, #2]
 1613 06ae 9BE7     		b	.L144
 1614              	.L319:
 1615              		.align	2
 1616              	.L318:
 1617 06b0 00000000 		.word	__esos_u32SystemFlags
 1618 06b4 00000000 		.word	__stChildTaskRx
 1619 06b8 00000000 		.word	.LANCHOR10
 1620 06bc 00000000 		.word	.LANCHOR9
 1621 06c0 00000000 		.word	.LANCHOR6
ARM GAS  /tmp/ccZiTkxd.s 			page 41


 1622 06c4 00000000 		.word	.LANCHOR7
 1623 06c8 ABAAAAAA 		.word	-1431655765
 1624 06cc 00000000 		.word	.LANCHOR0
 1625 06d0 00000000 		.word	.LANCHOR8
 1626 06d4 00000000 		.word	.LANCHOR1
 1627              	.L154:
 236:src/m5_app.c  ****                 ESOS_TASK_WAIT_ON_GET_UINT8(digit);
 1628              		.loc 1 236 17 view .LVU393
 236:src/m5_app.c  ****                 ESOS_TASK_WAIT_ON_GET_UINT8(digit);
 1629              		.loc 1 236 17 view .LVU394
 1630 06d8 EC23     		movs	r3, #236
 1631 06da 2380     		strh	r3, [r4]	@ movhi
 1632              	.L99:
 236:src/m5_app.c  ****                 ESOS_TASK_WAIT_ON_GET_UINT8(digit);
 1633              		.loc 1 236 17 discriminator 1 view .LVU395
 236:src/m5_app.c  ****                 ESOS_TASK_WAIT_ON_GET_UINT8(digit);
 1634              		.loc 1 236 17 discriminator 1 view .LVU396
 1635 06dc A378     		ldrb	r3, [r4, #2]	@ zero_extendqisi2
 1636 06de 13F00405 		ands	r5, r3, #4
 1637 06e2 69D1     		bne	.L284
 236:src/m5_app.c  ****                 ESOS_TASK_WAIT_ON_GET_UINT8(digit);
 1638              		.loc 1 236 17 discriminator 3 view .LVU397
 1639 06e4 7F4A     		ldr	r2, .L320
 1640 06e6 1268     		ldr	r2, [r2]
 1641 06e8 12F0080F 		tst	r2, #8
 1642 06ec 69D1     		bne	.L149
 236:src/m5_app.c  ****                 ESOS_TASK_WAIT_ON_GET_UINT8(digit);
 1643              		.loc 1 236 17 discriminator 4 view .LVU398
 1644 06ee 23F00103 		bic	r3, r3, #1
 1645 06f2 A370     		strb	r3, [r4, #2]
 1646              	.L150:
 236:src/m5_app.c  ****                 ESOS_TASK_WAIT_ON_GET_UINT8(digit);
 1647              		.loc 1 236 17 discriminator 7 view .LVU399
 1648 06f4 A378     		ldrb	r3, [r4, #2]	@ zero_extendqisi2
 1649 06f6 13F0010F 		tst	r3, #1
 1650 06fa 40F0A785 		bne	.L112
 236:src/m5_app.c  ****                 ESOS_TASK_WAIT_ON_GET_UINT8(digit);
 1651              		.loc 1 236 17 discriminator 9 view .LVU400
 236:src/m5_app.c  ****                 ESOS_TASK_WAIT_ON_GET_UINT8(digit);
 1652              		.loc 1 236 17 discriminator 9 view .LVU401
 1653 06fe 794A     		ldr	r2, .L320
 1654 0700 1368     		ldr	r3, [r2]
 1655 0702 43F00803 		orr	r3, r3, #8
 1656 0706 1360     		str	r3, [r2]
 237:src/m5_app.c  ****                 ESOS_TASK_SIGNAL_AVAILABLE_IN_COMM();
 1657              		.loc 1 237 17 discriminator 9 view .LVU402
 237:src/m5_app.c  ****                 ESOS_TASK_SIGNAL_AVAILABLE_IN_COMM();
 1658              		.loc 1 237 17 discriminator 9 view .LVU403
 1659 0708 774B     		ldr	r3, .L320+4
 1660 070a 0022     		movs	r2, #0
 1661 070c 1A80     		strh	r2, [r3]	@ movhi
 237:src/m5_app.c  ****                 ESOS_TASK_SIGNAL_AVAILABLE_IN_COMM();
 1662              		.loc 1 237 17 discriminator 9 view .LVU404
 237:src/m5_app.c  ****                 ESOS_TASK_SIGNAL_AVAILABLE_IN_COMM();
 1663              		.loc 1 237 17 discriminator 9 view .LVU405
 237:src/m5_app.c  ****                 ESOS_TASK_SIGNAL_AVAILABLE_IN_COMM();
 1664              		.loc 1 237 17 discriminator 9 view .LVU406
ARM GAS  /tmp/ccZiTkxd.s 			page 42


 237:src/m5_app.c  ****                 ESOS_TASK_SIGNAL_AVAILABLE_IN_COMM();
 1665              		.loc 1 237 17 discriminator 9 view .LVU407
 1666 070e ED23     		movs	r3, #237
 1667 0710 2380     		strh	r3, [r4]	@ movhi
 1668              	.L98:
 237:src/m5_app.c  ****                 ESOS_TASK_SIGNAL_AVAILABLE_IN_COMM();
 1669              		.loc 1 237 17 discriminator 1 view .LVU408
 237:src/m5_app.c  ****                 ESOS_TASK_SIGNAL_AVAILABLE_IN_COMM();
 1670              		.loc 1 237 17 discriminator 1 view .LVU409
 1671 0712 A578     		ldrb	r5, [r4, #2]	@ zero_extendqisi2
 1672 0714 15F00405 		ands	r5, r5, #4
 1673 0718 57D1     		bne	.L285
 237:src/m5_app.c  ****                 ESOS_TASK_SIGNAL_AVAILABLE_IN_COMM();
 1674              		.loc 1 237 17 discriminator 3 view .LVU410
 1675 071a 0122     		movs	r2, #1
 1676 071c 7349     		ldr	r1, .L320+8
 1677 071e 7248     		ldr	r0, .L320+4
 1678 0720 FFF7FEFF 		bl	__esos_getBuffer
 1679              	.LVL38:
 1680 0724 0228     		cmp	r0, #2
 1681 0726 55D9     		bls	.L152
 237:src/m5_app.c  ****                 ESOS_TASK_SIGNAL_AVAILABLE_IN_COMM();
 1682              		.loc 1 237 17 discriminator 4 view .LVU411
 1683 0728 A378     		ldrb	r3, [r4, #2]	@ zero_extendqisi2
 1684 072a 23F00103 		bic	r3, r3, #1
 1685 072e A370     		strb	r3, [r4, #2]
 1686              	.L153:
 237:src/m5_app.c  ****                 ESOS_TASK_SIGNAL_AVAILABLE_IN_COMM();
 1687              		.loc 1 237 17 discriminator 7 view .LVU412
 1688 0730 A378     		ldrb	r3, [r4, #2]	@ zero_extendqisi2
 1689 0732 13F0010F 		tst	r3, #1
 1690 0736 40F08985 		bne	.L112
 237:src/m5_app.c  ****                 ESOS_TASK_SIGNAL_AVAILABLE_IN_COMM();
 1691              		.loc 1 237 17 discriminator 9 view .LVU413
 237:src/m5_app.c  ****                 ESOS_TASK_SIGNAL_AVAILABLE_IN_COMM();
 1692              		.loc 1 237 17 discriminator 9 view .LVU414
 238:src/m5_app.c  ****                 sum[chooseLED][i] = digit; 
 1693              		.loc 1 238 17 discriminator 9 view .LVU415
 1694 073a 6A4A     		ldr	r2, .L320
 1695 073c 1368     		ldr	r3, [r2]
 1696 073e 23F00803 		bic	r3, r3, #8
 1697 0742 1360     		str	r3, [r2]
 239:src/m5_app.c  ****                 i++;
 1698              		.loc 1 239 17 discriminator 9 view .LVU416
 239:src/m5_app.c  ****                 i++;
 1699              		.loc 1 239 31 is_stmt 0 discriminator 9 view .LVU417
 1700 0744 6A4B     		ldr	r3, .L320+12
 1701 0746 1A78     		ldrb	r2, [r3]	@ zero_extendqisi2
 1702 0748 6A49     		ldr	r1, .L320+16
 1703 074a 0B78     		ldrb	r3, [r1]	@ zero_extendqisi2
 239:src/m5_app.c  ****                 i++;
 1704              		.loc 1 239 35 discriminator 9 view .LVU418
 1705 074c 03EB8202 		add	r2, r3, r2, lsl #2
 1706 0750 6648     		ldr	r0, .L320+8
 1707 0752 0578     		ldrb	r5, [r0]	@ zero_extendqisi2
 1708 0754 6848     		ldr	r0, .L320+20
 1709 0756 40F82250 		str	r5, [r0, r2, lsl #2]
ARM GAS  /tmp/ccZiTkxd.s 			page 43


 240:src/m5_app.c  **** 
 1710              		.loc 1 240 17 is_stmt 1 discriminator 9 view .LVU419
 240:src/m5_app.c  **** 
 1711              		.loc 1 240 18 is_stmt 0 discriminator 9 view .LVU420
 1712 075a 0133     		adds	r3, r3, #1
 1713 075c 0B70     		strb	r3, [r1]
 1714              	.L146:
 234:src/m5_app.c  ****               {
 1715              		.loc 1 234 21 is_stmt 1 view .LVU421
 234:src/m5_app.c  ****               {
 1716              		.loc 1 234 23 is_stmt 0 view .LVU422
 1717 075e 654B     		ldr	r3, .L320+16
 1718 0760 1B78     		ldrb	r3, [r3]	@ zero_extendqisi2
 234:src/m5_app.c  ****               {
 1719              		.loc 1 234 21 view .LVU423
 1720 0762 032B     		cmp	r3, #3
 1721 0764 B8D9     		bls	.L154
 243:src/m5_app.c  ****             }
 1722              		.loc 1 243 15 is_stmt 1 view .LVU424
 243:src/m5_app.c  ****             }
 1723              		.loc 1 243 49 is_stmt 0 view .LVU425
 1724 0766 624B     		ldr	r3, .L320+12
 1725 0768 1978     		ldrb	r1, [r3]	@ zero_extendqisi2
 1726 076a 634B     		ldr	r3, .L320+20
 1727 076c 0A01     		lsls	r2, r1, #4
 1728 076e 03EB0111 		add	r1, r3, r1, lsl #4
 1729 0772 9B58     		ldr	r3, [r3, r2]
 243:src/m5_app.c  ****             }
 1730              		.loc 1 243 52 view .LVU426
 1731 0774 3022     		movs	r2, #48
 1732 0776 B3FBF2F0 		udiv	r0, r3, r2
 1733 077a 02FB1030 		mls	r0, r2, r0, r3
 243:src/m5_app.c  ****             }
 1734              		.loc 1 243 81 view .LVU427
 1735 077e 4B68     		ldr	r3, [r1, #4]
 243:src/m5_app.c  ****             }
 1736              		.loc 1 243 84 view .LVU428
 1737 0780 B3FBF2F5 		udiv	r5, r3, r2
 1738 0784 02FB1533 		mls	r3, r2, r5, r3
 243:src/m5_app.c  ****             }
 1739              		.loc 1 243 88 view .LVU429
 1740 0788 6425     		movs	r5, #100
 1741 078a 05FB03F3 		mul	r3, r5, r3
 243:src/m5_app.c  ****             }
 1742              		.loc 1 243 63 view .LVU430
 1743 078e 4FF47A75 		mov	r5, #1000
 1744 0792 05FB0033 		mla	r3, r5, r0, r3
 243:src/m5_app.c  ****             }
 1745              		.loc 1 243 112 view .LVU431
 1746 0796 8868     		ldr	r0, [r1, #8]
 243:src/m5_app.c  ****             }
 1747              		.loc 1 243 115 view .LVU432
 1748 0798 B0FBF2F5 		udiv	r5, r0, r2
 1749 079c 02FB1500 		mls	r0, r2, r5, r0
 243:src/m5_app.c  ****             }
 1750              		.loc 1 243 94 view .LVU433
 1751 07a0 0A25     		movs	r5, #10
ARM GAS  /tmp/ccZiTkxd.s 			page 44


 1752 07a2 05FB0033 		mla	r3, r5, r0, r3
 243:src/m5_app.c  ****             }
 1753              		.loc 1 243 142 view .LVU434
 1754 07a6 C968     		ldr	r1, [r1, #12]
 243:src/m5_app.c  ****             }
 1755              		.loc 1 243 145 view .LVU435
 1756 07a8 B1FBF2F0 		udiv	r0, r1, r2
 1757 07ac 02FB1012 		mls	r2, r2, r0, r1
 243:src/m5_app.c  ****             }
 1758              		.loc 1 243 124 view .LVU436
 1759 07b0 1344     		add	r3, r3, r2
 243:src/m5_app.c  ****             }
 1760              		.loc 1 243 31 view .LVU437
 1761 07b2 524A     		ldr	r2, .L320+24
 1762 07b4 1360     		str	r3, [r2]
 1763 07b6 D1E6     		b	.L136
 1764              	.L284:
 236:src/m5_app.c  ****                 ESOS_TASK_WAIT_ON_GET_UINT8(digit);
 1765              		.loc 1 236 17 is_stmt 1 discriminator 2 view .LVU438
 1766 07b8 0423     		movs	r3, #4
 1767 07ba A370     		strb	r3, [r4, #2]
 236:src/m5_app.c  ****                 ESOS_TASK_WAIT_ON_GET_UINT8(digit);
 1768              		.loc 1 236 17 discriminator 2 view .LVU439
 1769 07bc 0325     		movs	r5, #3
 1770 07be 00F045BD 		b	.L112
 1771              	.L149:
 236:src/m5_app.c  ****                 ESOS_TASK_WAIT_ON_GET_UINT8(digit);
 1772              		.loc 1 236 17 discriminator 5 view .LVU440
 1773 07c2 43F00103 		orr	r3, r3, #1
 1774 07c6 A370     		strb	r3, [r4, #2]
 1775 07c8 94E7     		b	.L150
 1776              	.L285:
 237:src/m5_app.c  ****                 ESOS_TASK_SIGNAL_AVAILABLE_IN_COMM();
 1777              		.loc 1 237 17 discriminator 2 view .LVU441
 1778 07ca 0423     		movs	r3, #4
 1779 07cc A370     		strb	r3, [r4, #2]
 237:src/m5_app.c  ****                 ESOS_TASK_SIGNAL_AVAILABLE_IN_COMM();
 1780              		.loc 1 237 17 discriminator 2 view .LVU442
 1781 07ce 0325     		movs	r5, #3
 1782 07d0 00F03CBD 		b	.L112
 1783              	.L152:
 237:src/m5_app.c  ****                 ESOS_TASK_SIGNAL_AVAILABLE_IN_COMM();
 1784              		.loc 1 237 17 discriminator 5 view .LVU443
 1785 07d4 A378     		ldrb	r3, [r4, #2]	@ zero_extendqisi2
 1786 07d6 43F00103 		orr	r3, r3, #1
 1787 07da A370     		strb	r3, [r4, #2]
 1788 07dc A8E7     		b	.L153
 1789              	.L163:
 249:src/m5_app.c  ****                 ESOS_TASK_WAIT_ON_GET_UINT8(digit);
 1790              		.loc 1 249 17 view .LVU444
 249:src/m5_app.c  ****                 ESOS_TASK_WAIT_ON_GET_UINT8(digit);
 1791              		.loc 1 249 17 view .LVU445
 1792 07de F923     		movs	r3, #249
 1793 07e0 2380     		strh	r3, [r4]	@ movhi
 1794              	.L97:
 249:src/m5_app.c  ****                 ESOS_TASK_WAIT_ON_GET_UINT8(digit);
 1795              		.loc 1 249 17 discriminator 1 view .LVU446
ARM GAS  /tmp/ccZiTkxd.s 			page 45


 249:src/m5_app.c  ****                 ESOS_TASK_WAIT_ON_GET_UINT8(digit);
 1796              		.loc 1 249 17 discriminator 1 view .LVU447
 1797 07e2 A378     		ldrb	r3, [r4, #2]	@ zero_extendqisi2
 1798 07e4 13F00405 		ands	r5, r3, #4
 1799 07e8 69D1     		bne	.L286
 249:src/m5_app.c  ****                 ESOS_TASK_WAIT_ON_GET_UINT8(digit);
 1800              		.loc 1 249 17 discriminator 3 view .LVU448
 1801 07ea 3E4A     		ldr	r2, .L320
 1802 07ec 1268     		ldr	r2, [r2]
 1803 07ee 12F0080F 		tst	r2, #8
 1804 07f2 69D1     		bne	.L158
 249:src/m5_app.c  ****                 ESOS_TASK_WAIT_ON_GET_UINT8(digit);
 1805              		.loc 1 249 17 discriminator 4 view .LVU449
 1806 07f4 23F00103 		bic	r3, r3, #1
 1807 07f8 A370     		strb	r3, [r4, #2]
 1808              	.L159:
 249:src/m5_app.c  ****                 ESOS_TASK_WAIT_ON_GET_UINT8(digit);
 1809              		.loc 1 249 17 discriminator 7 view .LVU450
 1810 07fa A378     		ldrb	r3, [r4, #2]	@ zero_extendqisi2
 1811 07fc 13F0010F 		tst	r3, #1
 1812 0800 40F02485 		bne	.L112
 249:src/m5_app.c  ****                 ESOS_TASK_WAIT_ON_GET_UINT8(digit);
 1813              		.loc 1 249 17 discriminator 9 view .LVU451
 249:src/m5_app.c  ****                 ESOS_TASK_WAIT_ON_GET_UINT8(digit);
 1814              		.loc 1 249 17 discriminator 9 view .LVU452
 1815 0804 374A     		ldr	r2, .L320
 1816 0806 1368     		ldr	r3, [r2]
 1817 0808 43F00803 		orr	r3, r3, #8
 1818 080c 1360     		str	r3, [r2]
 250:src/m5_app.c  ****                 ESOS_TASK_SIGNAL_AVAILABLE_IN_COMM();
 1819              		.loc 1 250 17 discriminator 9 view .LVU453
 250:src/m5_app.c  ****                 ESOS_TASK_SIGNAL_AVAILABLE_IN_COMM();
 1820              		.loc 1 250 17 discriminator 9 view .LVU454
 1821 080e 364B     		ldr	r3, .L320+4
 1822 0810 0022     		movs	r2, #0
 1823 0812 1A80     		strh	r2, [r3]	@ movhi
 250:src/m5_app.c  ****                 ESOS_TASK_SIGNAL_AVAILABLE_IN_COMM();
 1824              		.loc 1 250 17 discriminator 9 view .LVU455
 250:src/m5_app.c  ****                 ESOS_TASK_SIGNAL_AVAILABLE_IN_COMM();
 1825              		.loc 1 250 17 discriminator 9 view .LVU456
 250:src/m5_app.c  ****                 ESOS_TASK_SIGNAL_AVAILABLE_IN_COMM();
 1826              		.loc 1 250 17 discriminator 9 view .LVU457
 250:src/m5_app.c  ****                 ESOS_TASK_SIGNAL_AVAILABLE_IN_COMM();
 1827              		.loc 1 250 17 discriminator 9 view .LVU458
 1828 0814 FA23     		movs	r3, #250
 1829 0816 2380     		strh	r3, [r4]	@ movhi
 1830              	.L96:
 250:src/m5_app.c  ****                 ESOS_TASK_SIGNAL_AVAILABLE_IN_COMM();
 1831              		.loc 1 250 17 discriminator 1 view .LVU459
 250:src/m5_app.c  ****                 ESOS_TASK_SIGNAL_AVAILABLE_IN_COMM();
 1832              		.loc 1 250 17 discriminator 1 view .LVU460
 1833 0818 A578     		ldrb	r5, [r4, #2]	@ zero_extendqisi2
 1834 081a 15F00405 		ands	r5, r5, #4
 1835 081e 57D1     		bne	.L287
 250:src/m5_app.c  ****                 ESOS_TASK_SIGNAL_AVAILABLE_IN_COMM();
 1836              		.loc 1 250 17 discriminator 3 view .LVU461
 1837 0820 0122     		movs	r2, #1
ARM GAS  /tmp/ccZiTkxd.s 			page 46


 1838 0822 3249     		ldr	r1, .L320+8
 1839 0824 3048     		ldr	r0, .L320+4
 1840 0826 FFF7FEFF 		bl	__esos_getBuffer
 1841              	.LVL39:
 1842 082a 0228     		cmp	r0, #2
 1843 082c 55D9     		bls	.L161
 250:src/m5_app.c  ****                 ESOS_TASK_SIGNAL_AVAILABLE_IN_COMM();
 1844              		.loc 1 250 17 discriminator 4 view .LVU462
 1845 082e A378     		ldrb	r3, [r4, #2]	@ zero_extendqisi2
 1846 0830 23F00103 		bic	r3, r3, #1
 1847 0834 A370     		strb	r3, [r4, #2]
 1848              	.L162:
 250:src/m5_app.c  ****                 ESOS_TASK_SIGNAL_AVAILABLE_IN_COMM();
 1849              		.loc 1 250 17 discriminator 7 view .LVU463
 1850 0836 A378     		ldrb	r3, [r4, #2]	@ zero_extendqisi2
 1851 0838 13F0010F 		tst	r3, #1
 1852 083c 40F00685 		bne	.L112
 250:src/m5_app.c  ****                 ESOS_TASK_SIGNAL_AVAILABLE_IN_COMM();
 1853              		.loc 1 250 17 discriminator 9 view .LVU464
 250:src/m5_app.c  ****                 ESOS_TASK_SIGNAL_AVAILABLE_IN_COMM();
 1854              		.loc 1 250 17 discriminator 9 view .LVU465
 251:src/m5_app.c  ****                 sum[chooseLED][i] = digit;  
 1855              		.loc 1 251 17 discriminator 9 view .LVU466
 1856 0840 284A     		ldr	r2, .L320
 1857 0842 1368     		ldr	r3, [r2]
 1858 0844 23F00803 		bic	r3, r3, #8
 1859 0848 1360     		str	r3, [r2]
 252:src/m5_app.c  ****                 i++;
 1860              		.loc 1 252 17 discriminator 9 view .LVU467
 252:src/m5_app.c  ****                 i++;
 1861              		.loc 1 252 31 is_stmt 0 discriminator 9 view .LVU468
 1862 084a 294B     		ldr	r3, .L320+12
 1863 084c 1A78     		ldrb	r2, [r3]	@ zero_extendqisi2
 1864 084e 2949     		ldr	r1, .L320+16
 1865 0850 0B78     		ldrb	r3, [r1]	@ zero_extendqisi2
 252:src/m5_app.c  ****                 i++;
 1866              		.loc 1 252 35 discriminator 9 view .LVU469
 1867 0852 03EB8202 		add	r2, r3, r2, lsl #2
 1868 0856 2548     		ldr	r0, .L320+8
 1869 0858 0578     		ldrb	r5, [r0]	@ zero_extendqisi2
 1870 085a 2748     		ldr	r0, .L320+20
 1871 085c 40F82250 		str	r5, [r0, r2, lsl #2]
 253:src/m5_app.c  **** 
 1872              		.loc 1 253 17 is_stmt 1 discriminator 9 view .LVU470
 253:src/m5_app.c  **** 
 1873              		.loc 1 253 18 is_stmt 0 discriminator 9 view .LVU471
 1874 0860 0133     		adds	r3, r3, #1
 1875 0862 0B70     		strb	r3, [r1]
 1876              	.L155:
 247:src/m5_app.c  ****               {
 1877              		.loc 1 247 21 is_stmt 1 view .LVU472
 247:src/m5_app.c  ****               {
 1878              		.loc 1 247 23 is_stmt 0 view .LVU473
 1879 0864 234B     		ldr	r3, .L320+16
 1880 0866 1B78     		ldrb	r3, [r3]	@ zero_extendqisi2
 247:src/m5_app.c  ****               {
 1881              		.loc 1 247 21 view .LVU474
ARM GAS  /tmp/ccZiTkxd.s 			page 47


 1882 0868 032B     		cmp	r3, #3
 1883 086a B8D9     		bls	.L163
 256:src/m5_app.c  ****             }
 1884              		.loc 1 256 15 is_stmt 1 view .LVU475
 256:src/m5_app.c  ****             }
 1885              		.loc 1 256 49 is_stmt 0 view .LVU476
 1886 086c 204B     		ldr	r3, .L320+12
 1887 086e 1978     		ldrb	r1, [r3]	@ zero_extendqisi2
 1888 0870 214B     		ldr	r3, .L320+20
 1889 0872 0A01     		lsls	r2, r1, #4
 1890 0874 03EB0111 		add	r1, r3, r1, lsl #4
 1891 0878 9B58     		ldr	r3, [r3, r2]
 256:src/m5_app.c  ****             }
 1892              		.loc 1 256 52 view .LVU477
 1893 087a 3022     		movs	r2, #48
 1894 087c B3FBF2F0 		udiv	r0, r3, r2
 1895 0880 02FB1030 		mls	r0, r2, r0, r3
 256:src/m5_app.c  ****             }
 1896              		.loc 1 256 81 view .LVU478
 1897 0884 4B68     		ldr	r3, [r1, #4]
 256:src/m5_app.c  ****             }
 1898              		.loc 1 256 84 view .LVU479
 1899 0886 B3FBF2F5 		udiv	r5, r3, r2
 1900 088a 02FB1533 		mls	r3, r2, r5, r3
 256:src/m5_app.c  ****             }
 1901              		.loc 1 256 88 view .LVU480
 1902 088e 6425     		movs	r5, #100
 1903 0890 05FB03F3 		mul	r3, r5, r3
 256:src/m5_app.c  ****             }
 1904              		.loc 1 256 63 view .LVU481
 1905 0894 4FF47A75 		mov	r5, #1000
 1906 0898 05FB0033 		mla	r3, r5, r0, r3
 256:src/m5_app.c  ****             }
 1907              		.loc 1 256 112 view .LVU482
 1908 089c 8868     		ldr	r0, [r1, #8]
 256:src/m5_app.c  ****             }
 1909              		.loc 1 256 115 view .LVU483
 1910 089e B0FBF2F5 		udiv	r5, r0, r2
 1911 08a2 02FB1500 		mls	r0, r2, r5, r0
 256:src/m5_app.c  ****             }
 1912              		.loc 1 256 94 view .LVU484
 1913 08a6 0A25     		movs	r5, #10
 1914 08a8 05FB0033 		mla	r3, r5, r0, r3
 256:src/m5_app.c  ****             }
 1915              		.loc 1 256 142 view .LVU485
 1916 08ac C968     		ldr	r1, [r1, #12]
 256:src/m5_app.c  ****             }
 1917              		.loc 1 256 145 view .LVU486
 1918 08ae B1FBF2F0 		udiv	r0, r1, r2
 1919 08b2 02FB1012 		mls	r2, r2, r0, r1
 256:src/m5_app.c  ****             }
 1920              		.loc 1 256 124 view .LVU487
 1921 08b6 1344     		add	r3, r3, r2
 256:src/m5_app.c  ****             }
 1922              		.loc 1 256 31 view .LVU488
 1923 08b8 114A     		ldr	r2, .L320+28
 1924 08ba 1360     		str	r3, [r2]
ARM GAS  /tmp/ccZiTkxd.s 			page 48


 1925 08bc 4EE6     		b	.L136
 1926              	.L286:
 249:src/m5_app.c  ****                 ESOS_TASK_WAIT_ON_GET_UINT8(digit);
 1927              		.loc 1 249 17 is_stmt 1 discriminator 2 view .LVU489
 1928 08be 0423     		movs	r3, #4
 1929 08c0 A370     		strb	r3, [r4, #2]
 249:src/m5_app.c  ****                 ESOS_TASK_WAIT_ON_GET_UINT8(digit);
 1930              		.loc 1 249 17 discriminator 2 view .LVU490
 1931 08c2 0325     		movs	r5, #3
 1932 08c4 00F0C2BC 		b	.L112
 1933              	.L158:
 249:src/m5_app.c  ****                 ESOS_TASK_WAIT_ON_GET_UINT8(digit);
 1934              		.loc 1 249 17 discriminator 5 view .LVU491
 1935 08c8 43F00103 		orr	r3, r3, #1
 1936 08cc A370     		strb	r3, [r4, #2]
 1937 08ce 94E7     		b	.L159
 1938              	.L287:
 250:src/m5_app.c  ****                 ESOS_TASK_SIGNAL_AVAILABLE_IN_COMM();
 1939              		.loc 1 250 17 discriminator 2 view .LVU492
 1940 08d0 0423     		movs	r3, #4
 1941 08d2 A370     		strb	r3, [r4, #2]
 250:src/m5_app.c  ****                 ESOS_TASK_SIGNAL_AVAILABLE_IN_COMM();
 1942              		.loc 1 250 17 discriminator 2 view .LVU493
 1943 08d4 0325     		movs	r5, #3
 1944 08d6 00F0B9BC 		b	.L112
 1945              	.L161:
 250:src/m5_app.c  ****                 ESOS_TASK_SIGNAL_AVAILABLE_IN_COMM();
 1946              		.loc 1 250 17 discriminator 5 view .LVU494
 1947 08da A378     		ldrb	r3, [r4, #2]	@ zero_extendqisi2
 1948 08dc 43F00103 		orr	r3, r3, #1
 1949 08e0 A370     		strb	r3, [r4, #2]
 1950 08e2 A8E7     		b	.L162
 1951              	.L321:
 1952              		.align	2
 1953              	.L320:
 1954 08e4 00000000 		.word	__esos_u32SystemFlags
 1955 08e8 00000000 		.word	__stChildTaskRx
 1956 08ec 00000000 		.word	.LANCHOR10
 1957 08f0 00000000 		.word	.LANCHOR9
 1958 08f4 00000000 		.word	.LANCHOR6
 1959 08f8 00000000 		.word	.LANCHOR7
 1960 08fc 00000000 		.word	.LANCHOR2
 1961 0900 00000000 		.word	.LANCHOR3
 1962              	.L171:
 262:src/m5_app.c  ****                 ESOS_TASK_WAIT_ON_GET_UINT8(digit);
 1963              		.loc 1 262 17 view .LVU495
 262:src/m5_app.c  ****                 ESOS_TASK_WAIT_ON_GET_UINT8(digit);
 1964              		.loc 1 262 17 view .LVU496
 1965 0904 4FF48373 		mov	r3, #262
 1966 0908 2380     		strh	r3, [r4]	@ movhi
 1967              	.L95:
 262:src/m5_app.c  ****                 ESOS_TASK_WAIT_ON_GET_UINT8(digit);
 1968              		.loc 1 262 17 discriminator 1 view .LVU497
 262:src/m5_app.c  ****                 ESOS_TASK_WAIT_ON_GET_UINT8(digit);
 1969              		.loc 1 262 17 discriminator 1 view .LVU498
 1970 090a A378     		ldrb	r3, [r4, #2]	@ zero_extendqisi2
 1971 090c 13F00405 		ands	r5, r3, #4
ARM GAS  /tmp/ccZiTkxd.s 			page 49


 1972 0910 6AD1     		bne	.L288
 262:src/m5_app.c  ****                 ESOS_TASK_WAIT_ON_GET_UINT8(digit);
 1973              		.loc 1 262 17 discriminator 3 view .LVU499
 1974 0912 AC4A     		ldr	r2, .L322
 1975 0914 1268     		ldr	r2, [r2]
 1976 0916 12F0080F 		tst	r2, #8
 1977 091a 6AD1     		bne	.L166
 262:src/m5_app.c  ****                 ESOS_TASK_WAIT_ON_GET_UINT8(digit);
 1978              		.loc 1 262 17 discriminator 4 view .LVU500
 1979 091c 23F00103 		bic	r3, r3, #1
 1980 0920 A370     		strb	r3, [r4, #2]
 1981              	.L167:
 262:src/m5_app.c  ****                 ESOS_TASK_WAIT_ON_GET_UINT8(digit);
 1982              		.loc 1 262 17 discriminator 7 view .LVU501
 1983 0922 A378     		ldrb	r3, [r4, #2]	@ zero_extendqisi2
 1984 0924 13F0010F 		tst	r3, #1
 1985 0928 40F09084 		bne	.L112
 262:src/m5_app.c  ****                 ESOS_TASK_WAIT_ON_GET_UINT8(digit);
 1986              		.loc 1 262 17 discriminator 9 view .LVU502
 262:src/m5_app.c  ****                 ESOS_TASK_WAIT_ON_GET_UINT8(digit);
 1987              		.loc 1 262 17 discriminator 9 view .LVU503
 1988 092c A54A     		ldr	r2, .L322
 1989 092e 1368     		ldr	r3, [r2]
 1990 0930 43F00803 		orr	r3, r3, #8
 1991 0934 1360     		str	r3, [r2]
 263:src/m5_app.c  ****                 ESOS_TASK_SIGNAL_AVAILABLE_IN_COMM();
 1992              		.loc 1 263 17 discriminator 9 view .LVU504
 263:src/m5_app.c  ****                 ESOS_TASK_SIGNAL_AVAILABLE_IN_COMM();
 1993              		.loc 1 263 17 discriminator 9 view .LVU505
 1994 0936 A44B     		ldr	r3, .L322+4
 1995 0938 0022     		movs	r2, #0
 1996 093a 1A80     		strh	r2, [r3]	@ movhi
 263:src/m5_app.c  ****                 ESOS_TASK_SIGNAL_AVAILABLE_IN_COMM();
 1997              		.loc 1 263 17 discriminator 9 view .LVU506
 263:src/m5_app.c  ****                 ESOS_TASK_SIGNAL_AVAILABLE_IN_COMM();
 1998              		.loc 1 263 17 discriminator 9 view .LVU507
 263:src/m5_app.c  ****                 ESOS_TASK_SIGNAL_AVAILABLE_IN_COMM();
 1999              		.loc 1 263 17 discriminator 9 view .LVU508
 263:src/m5_app.c  ****                 ESOS_TASK_SIGNAL_AVAILABLE_IN_COMM();
 2000              		.loc 1 263 17 discriminator 9 view .LVU509
 2001 093c 40F20713 		movw	r3, #263
 2002 0940 2380     		strh	r3, [r4]	@ movhi
 2003              	.L94:
 263:src/m5_app.c  ****                 ESOS_TASK_SIGNAL_AVAILABLE_IN_COMM();
 2004              		.loc 1 263 17 discriminator 1 view .LVU510
 263:src/m5_app.c  ****                 ESOS_TASK_SIGNAL_AVAILABLE_IN_COMM();
 2005              		.loc 1 263 17 discriminator 1 view .LVU511
 2006 0942 A578     		ldrb	r5, [r4, #2]	@ zero_extendqisi2
 2007 0944 15F00405 		ands	r5, r5, #4
 2008 0948 57D1     		bne	.L289
 263:src/m5_app.c  ****                 ESOS_TASK_SIGNAL_AVAILABLE_IN_COMM();
 2009              		.loc 1 263 17 discriminator 3 view .LVU512
 2010 094a 0122     		movs	r2, #1
 2011 094c 9F49     		ldr	r1, .L322+8
 2012 094e 9E48     		ldr	r0, .L322+4
 2013 0950 FFF7FEFF 		bl	__esos_getBuffer
 2014              	.LVL40:
ARM GAS  /tmp/ccZiTkxd.s 			page 50


 2015 0954 0228     		cmp	r0, #2
 2016 0956 55D9     		bls	.L169
 263:src/m5_app.c  ****                 ESOS_TASK_SIGNAL_AVAILABLE_IN_COMM();
 2017              		.loc 1 263 17 discriminator 4 view .LVU513
 2018 0958 A378     		ldrb	r3, [r4, #2]	@ zero_extendqisi2
 2019 095a 23F00103 		bic	r3, r3, #1
 2020 095e A370     		strb	r3, [r4, #2]
 2021              	.L170:
 263:src/m5_app.c  ****                 ESOS_TASK_SIGNAL_AVAILABLE_IN_COMM();
 2022              		.loc 1 263 17 discriminator 7 view .LVU514
 2023 0960 A378     		ldrb	r3, [r4, #2]	@ zero_extendqisi2
 2024 0962 13F0010F 		tst	r3, #1
 2025 0966 40F07184 		bne	.L112
 263:src/m5_app.c  ****                 ESOS_TASK_SIGNAL_AVAILABLE_IN_COMM();
 2026              		.loc 1 263 17 discriminator 9 view .LVU515
 263:src/m5_app.c  ****                 ESOS_TASK_SIGNAL_AVAILABLE_IN_COMM();
 2027              		.loc 1 263 17 discriminator 9 view .LVU516
 264:src/m5_app.c  ****                 sum[chooseLED][i] = digit; 
 2028              		.loc 1 264 17 discriminator 9 view .LVU517
 2029 096a 964A     		ldr	r2, .L322
 2030 096c 1368     		ldr	r3, [r2]
 2031 096e 23F00803 		bic	r3, r3, #8
 2032 0972 1360     		str	r3, [r2]
 265:src/m5_app.c  ****                 i++;
 2033              		.loc 1 265 17 discriminator 9 view .LVU518
 265:src/m5_app.c  ****                 i++;
 2034              		.loc 1 265 31 is_stmt 0 discriminator 9 view .LVU519
 2035 0974 964B     		ldr	r3, .L322+12
 2036 0976 1A78     		ldrb	r2, [r3]	@ zero_extendqisi2
 2037 0978 9649     		ldr	r1, .L322+16
 2038 097a 0B78     		ldrb	r3, [r1]	@ zero_extendqisi2
 265:src/m5_app.c  ****                 i++;
 2039              		.loc 1 265 35 discriminator 9 view .LVU520
 2040 097c 03EB8202 		add	r2, r3, r2, lsl #2
 2041 0980 9248     		ldr	r0, .L322+8
 2042 0982 0578     		ldrb	r5, [r0]	@ zero_extendqisi2
 2043 0984 9448     		ldr	r0, .L322+20
 2044 0986 40F82250 		str	r5, [r0, r2, lsl #2]
 266:src/m5_app.c  **** 
 2045              		.loc 1 266 17 is_stmt 1 discriminator 9 view .LVU521
 266:src/m5_app.c  **** 
 2046              		.loc 1 266 18 is_stmt 0 discriminator 9 view .LVU522
 2047 098a 0133     		adds	r3, r3, #1
 2048 098c 0B70     		strb	r3, [r1]
 2049              	.L164:
 260:src/m5_app.c  ****               {
 2050              		.loc 1 260 21 is_stmt 1 view .LVU523
 260:src/m5_app.c  ****               {
 2051              		.loc 1 260 23 is_stmt 0 view .LVU524
 2052 098e 914B     		ldr	r3, .L322+16
 2053 0990 1B78     		ldrb	r3, [r3]	@ zero_extendqisi2
 260:src/m5_app.c  ****               {
 2054              		.loc 1 260 21 view .LVU525
 2055 0992 032B     		cmp	r3, #3
 2056 0994 B6D9     		bls	.L171
 269:src/m5_app.c  ****             }
 2057              		.loc 1 269 15 is_stmt 1 view .LVU526
ARM GAS  /tmp/ccZiTkxd.s 			page 51


 269:src/m5_app.c  ****             }
 2058              		.loc 1 269 46 is_stmt 0 view .LVU527
 2059 0996 8E4B     		ldr	r3, .L322+12
 2060 0998 1978     		ldrb	r1, [r3]	@ zero_extendqisi2
 2061 099a 8F4B     		ldr	r3, .L322+20
 2062 099c 0A01     		lsls	r2, r1, #4
 2063 099e 03EB0111 		add	r1, r3, r1, lsl #4
 2064 09a2 9B58     		ldr	r3, [r3, r2]
 269:src/m5_app.c  ****             }
 2065              		.loc 1 269 49 view .LVU528
 2066 09a4 3022     		movs	r2, #48
 2067 09a6 B3FBF2F0 		udiv	r0, r3, r2
 2068 09aa 02FB1030 		mls	r0, r2, r0, r3
 269:src/m5_app.c  ****             }
 2069              		.loc 1 269 78 view .LVU529
 2070 09ae 4B68     		ldr	r3, [r1, #4]
 269:src/m5_app.c  ****             }
 2071              		.loc 1 269 81 view .LVU530
 2072 09b0 B3FBF2F5 		udiv	r5, r3, r2
 2073 09b4 02FB1533 		mls	r3, r2, r5, r3
 269:src/m5_app.c  ****             }
 2074              		.loc 1 269 85 view .LVU531
 2075 09b8 6425     		movs	r5, #100
 2076 09ba 05FB03F3 		mul	r3, r5, r3
 269:src/m5_app.c  ****             }
 2077              		.loc 1 269 60 view .LVU532
 2078 09be 4FF47A75 		mov	r5, #1000
 2079 09c2 05FB0033 		mla	r3, r5, r0, r3
 269:src/m5_app.c  ****             }
 2080              		.loc 1 269 109 view .LVU533
 2081 09c6 8868     		ldr	r0, [r1, #8]
 269:src/m5_app.c  ****             }
 2082              		.loc 1 269 112 view .LVU534
 2083 09c8 B0FBF2F5 		udiv	r5, r0, r2
 2084 09cc 02FB1500 		mls	r0, r2, r5, r0
 269:src/m5_app.c  ****             }
 2085              		.loc 1 269 91 view .LVU535
 2086 09d0 0A25     		movs	r5, #10
 2087 09d2 05FB0033 		mla	r3, r5, r0, r3
 269:src/m5_app.c  ****             }
 2088              		.loc 1 269 139 view .LVU536
 2089 09d6 C968     		ldr	r1, [r1, #12]
 269:src/m5_app.c  ****             }
 2090              		.loc 1 269 142 view .LVU537
 2091 09d8 B1FBF2F0 		udiv	r0, r1, r2
 2092 09dc 02FB1012 		mls	r2, r2, r0, r1
 269:src/m5_app.c  ****             }
 2093              		.loc 1 269 121 view .LVU538
 2094 09e0 1344     		add	r3, r3, r2
 269:src/m5_app.c  ****             }
 2095              		.loc 1 269 28 view .LVU539
 2096 09e2 7E4A     		ldr	r2, .L322+24
 2097 09e4 1360     		str	r3, [r2]
 2098 09e6 B9E5     		b	.L136
 2099              	.L288:
 262:src/m5_app.c  ****                 ESOS_TASK_WAIT_ON_GET_UINT8(digit);
 2100              		.loc 1 262 17 is_stmt 1 discriminator 2 view .LVU540
ARM GAS  /tmp/ccZiTkxd.s 			page 52


 2101 09e8 0423     		movs	r3, #4
 2102 09ea A370     		strb	r3, [r4, #2]
 262:src/m5_app.c  ****                 ESOS_TASK_WAIT_ON_GET_UINT8(digit);
 2103              		.loc 1 262 17 discriminator 2 view .LVU541
 2104 09ec 0325     		movs	r5, #3
 2105 09ee 00F02DBC 		b	.L112
 2106              	.L166:
 262:src/m5_app.c  ****                 ESOS_TASK_WAIT_ON_GET_UINT8(digit);
 2107              		.loc 1 262 17 discriminator 5 view .LVU542
 2108 09f2 43F00103 		orr	r3, r3, #1
 2109 09f6 A370     		strb	r3, [r4, #2]
 2110 09f8 93E7     		b	.L167
 2111              	.L289:
 263:src/m5_app.c  ****                 ESOS_TASK_SIGNAL_AVAILABLE_IN_COMM();
 2112              		.loc 1 263 17 discriminator 2 view .LVU543
 2113 09fa 0423     		movs	r3, #4
 2114 09fc A370     		strb	r3, [r4, #2]
 263:src/m5_app.c  ****                 ESOS_TASK_SIGNAL_AVAILABLE_IN_COMM();
 2115              		.loc 1 263 17 discriminator 2 view .LVU544
 2116 09fe 0325     		movs	r5, #3
 2117 0a00 00F024BC 		b	.L112
 2118              	.L169:
 263:src/m5_app.c  ****                 ESOS_TASK_SIGNAL_AVAILABLE_IN_COMM();
 2119              		.loc 1 263 17 discriminator 5 view .LVU545
 2120 0a04 A378     		ldrb	r3, [r4, #2]	@ zero_extendqisi2
 2121 0a06 43F00103 		orr	r3, r3, #1
 2122 0a0a A370     		strb	r3, [r4, #2]
 2123 0a0c A8E7     		b	.L170
 2124              	.L276:
 277:src/m5_app.c  ****             ESOS_TASK_WAIT_ON_GET_UINT8(chooseLED);
 2125              		.loc 1 277 13 discriminator 2 view .LVU546
 2126 0a0e 0423     		movs	r3, #4
 2127 0a10 A370     		strb	r3, [r4, #2]
 277:src/m5_app.c  ****             ESOS_TASK_WAIT_ON_GET_UINT8(chooseLED);
 2128              		.loc 1 277 13 discriminator 2 view .LVU547
 2129 0a12 0325     		movs	r5, #3
 2130 0a14 00F01ABC 		b	.L112
 2131              	.L173:
 277:src/m5_app.c  ****             ESOS_TASK_WAIT_ON_GET_UINT8(chooseLED);
 2132              		.loc 1 277 13 discriminator 5 view .LVU548
 2133 0a18 43F00103 		orr	r3, r3, #1
 2134 0a1c A370     		strb	r3, [r4, #2]
 2135 0a1e 6CE4     		b	.L174
 2136              	.L277:
 278:src/m5_app.c  ****             ESOS_TASK_SIGNAL_AVAILABLE_IN_COMM();
 2137              		.loc 1 278 13 discriminator 2 view .LVU549
 2138 0a20 0423     		movs	r3, #4
 2139 0a22 A370     		strb	r3, [r4, #2]
 278:src/m5_app.c  ****             ESOS_TASK_SIGNAL_AVAILABLE_IN_COMM();
 2140              		.loc 1 278 13 discriminator 2 view .LVU550
 2141 0a24 0325     		movs	r5, #3
 2142 0a26 00F011BC 		b	.L112
 2143              	.L176:
 278:src/m5_app.c  ****             ESOS_TASK_SIGNAL_AVAILABLE_IN_COMM();
 2144              		.loc 1 278 13 discriminator 5 view .LVU551
 2145 0a2a A378     		ldrb	r3, [r4, #2]	@ zero_extendqisi2
 2146 0a2c 43F00103 		orr	r3, r3, #1
ARM GAS  /tmp/ccZiTkxd.s 			page 53


 2147 0a30 A370     		strb	r3, [r4, #2]
 2148 0a32 83E4     		b	.L177
 2149              	.L186:
 286:src/m5_app.c  ****                 ESOS_TASK_WAIT_ON_SEND_UINT8(sum[chooseLED][i]);
 2150              		.loc 1 286 17 view .LVU552
 286:src/m5_app.c  ****                 ESOS_TASK_WAIT_ON_SEND_UINT8(sum[chooseLED][i]);
 2151              		.loc 1 286 17 view .LVU553
 2152 0a34 4FF48F73 		mov	r3, #286
 2153 0a38 2380     		strh	r3, [r4]	@ movhi
 2154              	.L91:
 286:src/m5_app.c  ****                 ESOS_TASK_WAIT_ON_SEND_UINT8(sum[chooseLED][i]);
 2155              		.loc 1 286 17 discriminator 1 view .LVU554
 286:src/m5_app.c  ****                 ESOS_TASK_WAIT_ON_SEND_UINT8(sum[chooseLED][i]);
 2156              		.loc 1 286 17 discriminator 1 view .LVU555
 2157 0a3a A378     		ldrb	r3, [r4, #2]	@ zero_extendqisi2
 2158 0a3c 13F00405 		ands	r5, r3, #4
 2159 0a40 40D1     		bne	.L290
 286:src/m5_app.c  ****                 ESOS_TASK_WAIT_ON_SEND_UINT8(sum[chooseLED][i]);
 2160              		.loc 1 286 17 discriminator 3 view .LVU556
 2161 0a42 604A     		ldr	r2, .L322
 2162 0a44 1268     		ldr	r2, [r2]
 2163 0a46 12F0040F 		tst	r2, #4
 2164 0a4a 3FD1     		bne	.L181
 286:src/m5_app.c  ****                 ESOS_TASK_WAIT_ON_SEND_UINT8(sum[chooseLED][i]);
 2165              		.loc 1 286 17 discriminator 4 view .LVU557
 2166 0a4c 23F00103 		bic	r3, r3, #1
 2167 0a50 A370     		strb	r3, [r4, #2]
 2168              	.L182:
 286:src/m5_app.c  ****                 ESOS_TASK_WAIT_ON_SEND_UINT8(sum[chooseLED][i]);
 2169              		.loc 1 286 17 discriminator 7 view .LVU558
 2170 0a52 A378     		ldrb	r3, [r4, #2]	@ zero_extendqisi2
 2171 0a54 13F0010F 		tst	r3, #1
 2172 0a58 40F0F883 		bne	.L112
 286:src/m5_app.c  ****                 ESOS_TASK_WAIT_ON_SEND_UINT8(sum[chooseLED][i]);
 2173              		.loc 1 286 17 discriminator 9 view .LVU559
 286:src/m5_app.c  ****                 ESOS_TASK_WAIT_ON_SEND_UINT8(sum[chooseLED][i]);
 2174              		.loc 1 286 17 discriminator 9 view .LVU560
 2175 0a5c 594A     		ldr	r2, .L322
 2176 0a5e 1368     		ldr	r3, [r2]
 2177 0a60 43F00403 		orr	r3, r3, #4
 2178 0a64 1360     		str	r3, [r2]
 287:src/m5_app.c  ****                 ESOS_TASK_SIGNAL_AVAILABLE_OUT_COMM();
 2179              		.loc 1 287 17 discriminator 9 view .LVU561
 287:src/m5_app.c  ****                 ESOS_TASK_SIGNAL_AVAILABLE_OUT_COMM();
 2180              		.loc 1 287 17 discriminator 9 view .LVU562
 2181 0a66 5E4B     		ldr	r3, .L322+28
 2182 0a68 0022     		movs	r2, #0
 2183 0a6a 1A80     		strh	r2, [r3]	@ movhi
 287:src/m5_app.c  ****                 ESOS_TASK_SIGNAL_AVAILABLE_OUT_COMM();
 2184              		.loc 1 287 17 discriminator 9 view .LVU563
 287:src/m5_app.c  ****                 ESOS_TASK_SIGNAL_AVAILABLE_OUT_COMM();
 2185              		.loc 1 287 17 discriminator 9 view .LVU564
 287:src/m5_app.c  ****                 ESOS_TASK_SIGNAL_AVAILABLE_OUT_COMM();
 2186              		.loc 1 287 17 discriminator 9 view .LVU565
 287:src/m5_app.c  ****                 ESOS_TASK_SIGNAL_AVAILABLE_OUT_COMM();
 2187              		.loc 1 287 17 discriminator 9 view .LVU566
 2188 0a6c 40F21F13 		movw	r3, #287
ARM GAS  /tmp/ccZiTkxd.s 			page 54


 2189 0a70 2380     		strh	r3, [r4]	@ movhi
 2190              	.L90:
 287:src/m5_app.c  ****                 ESOS_TASK_SIGNAL_AVAILABLE_OUT_COMM();
 2191              		.loc 1 287 17 discriminator 1 view .LVU567
 287:src/m5_app.c  ****                 ESOS_TASK_SIGNAL_AVAILABLE_OUT_COMM();
 2192              		.loc 1 287 17 discriminator 1 view .LVU568
 2193 0a72 A578     		ldrb	r5, [r4, #2]	@ zero_extendqisi2
 2194 0a74 15F00405 		ands	r5, r5, #4
 2195 0a78 2CD1     		bne	.L291
 287:src/m5_app.c  ****                 ESOS_TASK_SIGNAL_AVAILABLE_OUT_COMM();
 2196              		.loc 1 287 17 discriminator 3 view .LVU569
 2197 0a7a 554B     		ldr	r3, .L322+12
 2198 0a7c 1A78     		ldrb	r2, [r3]	@ zero_extendqisi2
 2199 0a7e 554B     		ldr	r3, .L322+16
 2200 0a80 1B78     		ldrb	r3, [r3]	@ zero_extendqisi2
 2201 0a82 03EB8203 		add	r3, r3, r2, lsl #2
 2202 0a86 544A     		ldr	r2, .L322+20
 2203 0a88 12F82310 		ldrb	r1, [r2, r3, lsl #2]	@ zero_extendqisi2
 2204 0a8c 5448     		ldr	r0, .L322+28
 2205 0a8e FFF7FEFF 		bl	__esos_OutChar
 2206              	.LVL41:
 2207 0a92 0228     		cmp	r0, #2
 2208 0a94 22D9     		bls	.L184
 287:src/m5_app.c  ****                 ESOS_TASK_SIGNAL_AVAILABLE_OUT_COMM();
 2209              		.loc 1 287 17 discriminator 4 view .LVU570
 2210 0a96 A378     		ldrb	r3, [r4, #2]	@ zero_extendqisi2
 2211 0a98 23F00103 		bic	r3, r3, #1
 2212 0a9c A370     		strb	r3, [r4, #2]
 2213              	.L185:
 287:src/m5_app.c  ****                 ESOS_TASK_SIGNAL_AVAILABLE_OUT_COMM();
 2214              		.loc 1 287 17 discriminator 7 view .LVU571
 2215 0a9e A378     		ldrb	r3, [r4, #2]	@ zero_extendqisi2
 2216 0aa0 13F0010F 		tst	r3, #1
 2217 0aa4 40F0D283 		bne	.L112
 287:src/m5_app.c  ****                 ESOS_TASK_SIGNAL_AVAILABLE_OUT_COMM();
 2218              		.loc 1 287 17 discriminator 9 view .LVU572
 287:src/m5_app.c  ****                 ESOS_TASK_SIGNAL_AVAILABLE_OUT_COMM();
 2219              		.loc 1 287 17 discriminator 9 view .LVU573
 288:src/m5_app.c  ****               }
 2220              		.loc 1 288 17 discriminator 9 view .LVU574
 2221 0aa8 464A     		ldr	r2, .L322
 2222 0aaa 1368     		ldr	r3, [r2]
 2223 0aac 23F00403 		bic	r3, r3, #4
 2224 0ab0 1360     		str	r3, [r2]
 284:src/m5_app.c  ****               {
 2225              		.loc 1 284 34 discriminator 9 view .LVU575
 284:src/m5_app.c  ****               {
 2226              		.loc 1 284 35 is_stmt 0 discriminator 9 view .LVU576
 2227 0ab2 484A     		ldr	r2, .L322+16
 2228 0ab4 1378     		ldrb	r3, [r2]	@ zero_extendqisi2
 2229 0ab6 0133     		adds	r3, r3, #1
 2230 0ab8 1370     		strb	r3, [r2]
 2231              	.L179:
 284:src/m5_app.c  ****               {
 2232              		.loc 1 284 27 is_stmt 1 discriminator 2 view .LVU577
 284:src/m5_app.c  ****               {
 2233              		.loc 1 284 29 is_stmt 0 discriminator 2 view .LVU578
ARM GAS  /tmp/ccZiTkxd.s 			page 55


 2234 0aba 464B     		ldr	r3, .L322+16
 2235 0abc 1B78     		ldrb	r3, [r3]	@ zero_extendqisi2
 284:src/m5_app.c  ****               {
 2236              		.loc 1 284 15 discriminator 2 view .LVU579
 2237 0abe 032B     		cmp	r3, #3
 2238 0ac0 B8D9     		bls	.L186
 2239 0ac2 4BE5     		b	.L136
 2240              	.L290:
 286:src/m5_app.c  ****                 ESOS_TASK_WAIT_ON_SEND_UINT8(sum[chooseLED][i]);
 2241              		.loc 1 286 17 is_stmt 1 discriminator 2 view .LVU580
 2242 0ac4 0423     		movs	r3, #4
 2243 0ac6 A370     		strb	r3, [r4, #2]
 286:src/m5_app.c  ****                 ESOS_TASK_WAIT_ON_SEND_UINT8(sum[chooseLED][i]);
 2244              		.loc 1 286 17 discriminator 2 view .LVU581
 2245 0ac8 0325     		movs	r5, #3
 2246 0aca BFE3     		b	.L112
 2247              	.L181:
 286:src/m5_app.c  ****                 ESOS_TASK_WAIT_ON_SEND_UINT8(sum[chooseLED][i]);
 2248              		.loc 1 286 17 discriminator 5 view .LVU582
 2249 0acc 43F00103 		orr	r3, r3, #1
 2250 0ad0 A370     		strb	r3, [r4, #2]
 2251 0ad2 BEE7     		b	.L182
 2252              	.L291:
 287:src/m5_app.c  ****                 ESOS_TASK_SIGNAL_AVAILABLE_OUT_COMM();
 2253              		.loc 1 287 17 discriminator 2 view .LVU583
 2254 0ad4 0423     		movs	r3, #4
 2255 0ad6 A370     		strb	r3, [r4, #2]
 287:src/m5_app.c  ****                 ESOS_TASK_SIGNAL_AVAILABLE_OUT_COMM();
 2256              		.loc 1 287 17 discriminator 2 view .LVU584
 2257 0ad8 0325     		movs	r5, #3
 2258 0ada B7E3     		b	.L112
 2259              	.L184:
 287:src/m5_app.c  ****                 ESOS_TASK_SIGNAL_AVAILABLE_OUT_COMM();
 2260              		.loc 1 287 17 discriminator 5 view .LVU585
 2261 0adc A378     		ldrb	r3, [r4, #2]	@ zero_extendqisi2
 2262 0ade 43F00103 		orr	r3, r3, #1
 2263 0ae2 A370     		strb	r3, [r4, #2]
 2264 0ae4 DBE7     		b	.L185
 2265              	.L178:
 292:src/m5_app.c  ****             {
 2266              		.loc 1 292 18 view .LVU586
 292:src/m5_app.c  ****             {
 2267              		.loc 1 292 21 is_stmt 0 view .LVU587
 2268 0ae6 012B     		cmp	r3, #1
 2269 0ae8 0BD0     		beq	.L292
 301:src/m5_app.c  ****             {
 2270              		.loc 1 301 18 is_stmt 1 view .LVU588
 301:src/m5_app.c  ****             {
 2271              		.loc 1 301 21 is_stmt 0 view .LVU589
 2272 0aea 022B     		cmp	r3, #2
 2273 0aec 66D0     		beq	.L293
 310:src/m5_app.c  ****             {
 2274              		.loc 1 310 18 is_stmt 1 view .LVU590
 310:src/m5_app.c  ****             {
 2275              		.loc 1 310 21 is_stmt 0 view .LVU591
 2276 0aee 032B     		cmp	r3, #3
 2277 0af0 00F0D280 		beq	.L294
ARM GAS  /tmp/ccZiTkxd.s 			page 56


 319:src/m5_app.c  ****             {
 2278              		.loc 1 319 18 is_stmt 1 view .LVU592
 319:src/m5_app.c  ****             {
 2279              		.loc 1 319 21 is_stmt 0 view .LVU593
 2280 0af4 042B     		cmp	r3, #4
 2281 0af6 40F0F281 		bne	.L67
 321:src/m5_app.c  ****               {
 2282              		.loc 1 321 15 is_stmt 1 view .LVU594
 321:src/m5_app.c  ****               {
 2283              		.loc 1 321 22 is_stmt 0 view .LVU595
 2284 0afa 364B     		ldr	r3, .L322+16
 2285 0afc 0022     		movs	r2, #0
 2286 0afe 1A70     		strb	r2, [r3]
 321:src/m5_app.c  ****               {
 2287              		.loc 1 321 15 view .LVU596
 2288 0b00 6BE1     		b	.L214
 2289              	.L292:
 294:src/m5_app.c  ****               {
 2290              		.loc 1 294 15 is_stmt 1 view .LVU597
 294:src/m5_app.c  ****               {
 2291              		.loc 1 294 22 is_stmt 0 view .LVU598
 2292 0b02 344B     		ldr	r3, .L322+16
 2293 0b04 0022     		movs	r2, #0
 2294 0b06 1A70     		strb	r2, [r3]
 294:src/m5_app.c  ****               {
 2295              		.loc 1 294 15 view .LVU599
 2296 0b08 42E0     		b	.L188
 2297              	.L195:
 296:src/m5_app.c  ****                 ESOS_TASK_WAIT_ON_SEND_UINT8(sum[chooseLED][i]);
 2298              		.loc 1 296 17 is_stmt 1 view .LVU600
 296:src/m5_app.c  ****                 ESOS_TASK_WAIT_ON_SEND_UINT8(sum[chooseLED][i]);
 2299              		.loc 1 296 17 view .LVU601
 2300 0b0a 4FF49473 		mov	r3, #296
 2301 0b0e 2380     		strh	r3, [r4]	@ movhi
 2302              	.L89:
 296:src/m5_app.c  ****                 ESOS_TASK_WAIT_ON_SEND_UINT8(sum[chooseLED][i]);
 2303              		.loc 1 296 17 discriminator 1 view .LVU602
 296:src/m5_app.c  ****                 ESOS_TASK_WAIT_ON_SEND_UINT8(sum[chooseLED][i]);
 2304              		.loc 1 296 17 discriminator 1 view .LVU603
 2305 0b10 A378     		ldrb	r3, [r4, #2]	@ zero_extendqisi2
 2306 0b12 13F00405 		ands	r5, r3, #4
 2307 0b16 40D1     		bne	.L295
 296:src/m5_app.c  ****                 ESOS_TASK_WAIT_ON_SEND_UINT8(sum[chooseLED][i]);
 2308              		.loc 1 296 17 discriminator 3 view .LVU604
 2309 0b18 2A4A     		ldr	r2, .L322
 2310 0b1a 1268     		ldr	r2, [r2]
 2311 0b1c 12F0040F 		tst	r2, #4
 2312 0b20 3FD1     		bne	.L190
 296:src/m5_app.c  ****                 ESOS_TASK_WAIT_ON_SEND_UINT8(sum[chooseLED][i]);
 2313              		.loc 1 296 17 discriminator 4 view .LVU605
 2314 0b22 23F00103 		bic	r3, r3, #1
 2315 0b26 A370     		strb	r3, [r4, #2]
 2316              	.L191:
 296:src/m5_app.c  ****                 ESOS_TASK_WAIT_ON_SEND_UINT8(sum[chooseLED][i]);
 2317              		.loc 1 296 17 discriminator 7 view .LVU606
 2318 0b28 A378     		ldrb	r3, [r4, #2]	@ zero_extendqisi2
 2319 0b2a 13F0010F 		tst	r3, #1
ARM GAS  /tmp/ccZiTkxd.s 			page 57


 2320 0b2e 40F08D83 		bne	.L112
 296:src/m5_app.c  ****                 ESOS_TASK_WAIT_ON_SEND_UINT8(sum[chooseLED][i]);
 2321              		.loc 1 296 17 discriminator 9 view .LVU607
 296:src/m5_app.c  ****                 ESOS_TASK_WAIT_ON_SEND_UINT8(sum[chooseLED][i]);
 2322              		.loc 1 296 17 discriminator 9 view .LVU608
 2323 0b32 244A     		ldr	r2, .L322
 2324 0b34 1368     		ldr	r3, [r2]
 2325 0b36 43F00403 		orr	r3, r3, #4
 2326 0b3a 1360     		str	r3, [r2]
 297:src/m5_app.c  ****                 ESOS_TASK_SIGNAL_AVAILABLE_OUT_COMM(); 
 2327              		.loc 1 297 17 discriminator 9 view .LVU609
 297:src/m5_app.c  ****                 ESOS_TASK_SIGNAL_AVAILABLE_OUT_COMM(); 
 2328              		.loc 1 297 17 discriminator 9 view .LVU610
 2329 0b3c 284B     		ldr	r3, .L322+28
 2330 0b3e 0022     		movs	r2, #0
 2331 0b40 1A80     		strh	r2, [r3]	@ movhi
 297:src/m5_app.c  ****                 ESOS_TASK_SIGNAL_AVAILABLE_OUT_COMM(); 
 2332              		.loc 1 297 17 discriminator 9 view .LVU611
 297:src/m5_app.c  ****                 ESOS_TASK_SIGNAL_AVAILABLE_OUT_COMM(); 
 2333              		.loc 1 297 17 discriminator 9 view .LVU612
 297:src/m5_app.c  ****                 ESOS_TASK_SIGNAL_AVAILABLE_OUT_COMM(); 
 2334              		.loc 1 297 17 discriminator 9 view .LVU613
 297:src/m5_app.c  ****                 ESOS_TASK_SIGNAL_AVAILABLE_OUT_COMM(); 
 2335              		.loc 1 297 17 discriminator 9 view .LVU614
 2336 0b42 40F22913 		movw	r3, #297
 2337 0b46 2380     		strh	r3, [r4]	@ movhi
 2338              	.L88:
 297:src/m5_app.c  ****                 ESOS_TASK_SIGNAL_AVAILABLE_OUT_COMM(); 
 2339              		.loc 1 297 17 discriminator 1 view .LVU615
 297:src/m5_app.c  ****                 ESOS_TASK_SIGNAL_AVAILABLE_OUT_COMM(); 
 2340              		.loc 1 297 17 discriminator 1 view .LVU616
 2341 0b48 A578     		ldrb	r5, [r4, #2]	@ zero_extendqisi2
 2342 0b4a 15F00405 		ands	r5, r5, #4
 2343 0b4e 2CD1     		bne	.L296
 297:src/m5_app.c  ****                 ESOS_TASK_SIGNAL_AVAILABLE_OUT_COMM(); 
 2344              		.loc 1 297 17 discriminator 3 view .LVU617
 2345 0b50 1F4B     		ldr	r3, .L322+12
 2346 0b52 1A78     		ldrb	r2, [r3]	@ zero_extendqisi2
 2347 0b54 1F4B     		ldr	r3, .L322+16
 2348 0b56 1B78     		ldrb	r3, [r3]	@ zero_extendqisi2
 2349 0b58 03EB8203 		add	r3, r3, r2, lsl #2
 2350 0b5c 1E4A     		ldr	r2, .L322+20
 2351 0b5e 12F82310 		ldrb	r1, [r2, r3, lsl #2]	@ zero_extendqisi2
 2352 0b62 1F48     		ldr	r0, .L322+28
 2353 0b64 FFF7FEFF 		bl	__esos_OutChar
 2354              	.LVL42:
 2355 0b68 0228     		cmp	r0, #2
 2356 0b6a 22D9     		bls	.L193
 297:src/m5_app.c  ****                 ESOS_TASK_SIGNAL_AVAILABLE_OUT_COMM(); 
 2357              		.loc 1 297 17 discriminator 4 view .LVU618
 2358 0b6c A378     		ldrb	r3, [r4, #2]	@ zero_extendqisi2
 2359 0b6e 23F00103 		bic	r3, r3, #1
 2360 0b72 A370     		strb	r3, [r4, #2]
 2361              	.L194:
 297:src/m5_app.c  ****                 ESOS_TASK_SIGNAL_AVAILABLE_OUT_COMM(); 
 2362              		.loc 1 297 17 discriminator 7 view .LVU619
 2363 0b74 A378     		ldrb	r3, [r4, #2]	@ zero_extendqisi2
ARM GAS  /tmp/ccZiTkxd.s 			page 58


 2364 0b76 13F0010F 		tst	r3, #1
 2365 0b7a 40F06783 		bne	.L112
 297:src/m5_app.c  ****                 ESOS_TASK_SIGNAL_AVAILABLE_OUT_COMM(); 
 2366              		.loc 1 297 17 discriminator 9 view .LVU620
 297:src/m5_app.c  ****                 ESOS_TASK_SIGNAL_AVAILABLE_OUT_COMM(); 
 2367              		.loc 1 297 17 discriminator 9 view .LVU621
 298:src/m5_app.c  ****               }
 2368              		.loc 1 298 17 discriminator 9 view .LVU622
 2369 0b7e 114A     		ldr	r2, .L322
 2370 0b80 1368     		ldr	r3, [r2]
 2371 0b82 23F00403 		bic	r3, r3, #4
 2372 0b86 1360     		str	r3, [r2]
 294:src/m5_app.c  ****               {
 2373              		.loc 1 294 34 discriminator 9 view .LVU623
 294:src/m5_app.c  ****               {
 2374              		.loc 1 294 35 is_stmt 0 discriminator 9 view .LVU624
 2375 0b88 124A     		ldr	r2, .L322+16
 2376 0b8a 1378     		ldrb	r3, [r2]	@ zero_extendqisi2
 2377 0b8c 0133     		adds	r3, r3, #1
 2378 0b8e 1370     		strb	r3, [r2]
 2379              	.L188:
 294:src/m5_app.c  ****               {
 2380              		.loc 1 294 27 is_stmt 1 discriminator 2 view .LVU625
 294:src/m5_app.c  ****               {
 2381              		.loc 1 294 29 is_stmt 0 discriminator 2 view .LVU626
 2382 0b90 104B     		ldr	r3, .L322+16
 2383 0b92 1B78     		ldrb	r3, [r3]	@ zero_extendqisi2
 294:src/m5_app.c  ****               {
 2384              		.loc 1 294 15 discriminator 2 view .LVU627
 2385 0b94 032B     		cmp	r3, #3
 2386 0b96 B8D9     		bls	.L195
 2387 0b98 E0E4     		b	.L136
 2388              	.L295:
 296:src/m5_app.c  ****                 ESOS_TASK_WAIT_ON_SEND_UINT8(sum[chooseLED][i]);
 2389              		.loc 1 296 17 is_stmt 1 discriminator 2 view .LVU628
 2390 0b9a 0423     		movs	r3, #4
 2391 0b9c A370     		strb	r3, [r4, #2]
 296:src/m5_app.c  ****                 ESOS_TASK_WAIT_ON_SEND_UINT8(sum[chooseLED][i]);
 2392              		.loc 1 296 17 discriminator 2 view .LVU629
 2393 0b9e 0325     		movs	r5, #3
 2394 0ba0 54E3     		b	.L112
 2395              	.L190:
 296:src/m5_app.c  ****                 ESOS_TASK_WAIT_ON_SEND_UINT8(sum[chooseLED][i]);
 2396              		.loc 1 296 17 discriminator 5 view .LVU630
 2397 0ba2 43F00103 		orr	r3, r3, #1
 2398 0ba6 A370     		strb	r3, [r4, #2]
 2399 0ba8 BEE7     		b	.L191
 2400              	.L296:
 297:src/m5_app.c  ****                 ESOS_TASK_SIGNAL_AVAILABLE_OUT_COMM(); 
 2401              		.loc 1 297 17 discriminator 2 view .LVU631
 2402 0baa 0423     		movs	r3, #4
 2403 0bac A370     		strb	r3, [r4, #2]
 297:src/m5_app.c  ****                 ESOS_TASK_SIGNAL_AVAILABLE_OUT_COMM(); 
 2404              		.loc 1 297 17 discriminator 2 view .LVU632
 2405 0bae 0325     		movs	r5, #3
 2406 0bb0 4CE3     		b	.L112
 2407              	.L193:
ARM GAS  /tmp/ccZiTkxd.s 			page 59


 297:src/m5_app.c  ****                 ESOS_TASK_SIGNAL_AVAILABLE_OUT_COMM(); 
 2408              		.loc 1 297 17 discriminator 5 view .LVU633
 2409 0bb2 A378     		ldrb	r3, [r4, #2]	@ zero_extendqisi2
 2410 0bb4 43F00103 		orr	r3, r3, #1
 2411 0bb8 A370     		strb	r3, [r4, #2]
 2412 0bba DBE7     		b	.L194
 2413              	.L293:
 303:src/m5_app.c  ****               {
 2414              		.loc 1 303 15 view .LVU634
 303:src/m5_app.c  ****               {
 2415              		.loc 1 303 22 is_stmt 0 view .LVU635
 2416 0bbc 054B     		ldr	r3, .L322+16
 2417 0bbe 0022     		movs	r2, #0
 2418 0bc0 1A70     		strb	r2, [r3]
 303:src/m5_app.c  ****               {
 2419              		.loc 1 303 15 view .LVU636
 2420 0bc2 4FE0     		b	.L197
 2421              	.L323:
 2422              		.align	2
 2423              	.L322:
 2424 0bc4 00000000 		.word	__esos_u32SystemFlags
 2425 0bc8 00000000 		.word	__stChildTaskRx
 2426 0bcc 00000000 		.word	.LANCHOR10
 2427 0bd0 00000000 		.word	.LANCHOR9
 2428 0bd4 00000000 		.word	.LANCHOR6
 2429 0bd8 00000000 		.word	.LANCHOR7
 2430 0bdc 00000000 		.word	.LANCHOR4
 2431 0be0 00000000 		.word	__stChildTaskTx
 2432              	.L87:
 305:src/m5_app.c  ****                 ESOS_TASK_WAIT_ON_SEND_UINT8(sum[chooseLED][i]);
 2433              		.loc 1 305 17 is_stmt 1 discriminator 1 view .LVU637
 305:src/m5_app.c  ****                 ESOS_TASK_WAIT_ON_SEND_UINT8(sum[chooseLED][i]);
 2434              		.loc 1 305 17 discriminator 1 view .LVU638
 2435 0be4 A378     		ldrb	r3, [r4, #2]	@ zero_extendqisi2
 2436 0be6 13F00405 		ands	r5, r3, #4
 2437 0bea 44D1     		bne	.L297
 305:src/m5_app.c  ****                 ESOS_TASK_WAIT_ON_SEND_UINT8(sum[chooseLED][i]);
 2438              		.loc 1 305 17 discriminator 3 view .LVU639
 2439 0bec 864A     		ldr	r2, .L324
 2440 0bee 1268     		ldr	r2, [r2]
 2441 0bf0 12F0040F 		tst	r2, #4
 2442 0bf4 43D1     		bne	.L199
 305:src/m5_app.c  ****                 ESOS_TASK_WAIT_ON_SEND_UINT8(sum[chooseLED][i]);
 2443              		.loc 1 305 17 discriminator 4 view .LVU640
 2444 0bf6 23F00103 		bic	r3, r3, #1
 2445 0bfa A370     		strb	r3, [r4, #2]
 2446              	.L200:
 305:src/m5_app.c  ****                 ESOS_TASK_WAIT_ON_SEND_UINT8(sum[chooseLED][i]);
 2447              		.loc 1 305 17 discriminator 7 view .LVU641
 2448 0bfc A378     		ldrb	r3, [r4, #2]	@ zero_extendqisi2
 2449 0bfe 13F0010F 		tst	r3, #1
 2450 0c02 40F02383 		bne	.L112
 305:src/m5_app.c  ****                 ESOS_TASK_WAIT_ON_SEND_UINT8(sum[chooseLED][i]);
 2451              		.loc 1 305 17 discriminator 9 view .LVU642
 305:src/m5_app.c  ****                 ESOS_TASK_WAIT_ON_SEND_UINT8(sum[chooseLED][i]);
 2452              		.loc 1 305 17 discriminator 9 view .LVU643
 2453 0c06 804A     		ldr	r2, .L324
ARM GAS  /tmp/ccZiTkxd.s 			page 60


 2454 0c08 1368     		ldr	r3, [r2]
 2455 0c0a 43F00403 		orr	r3, r3, #4
 2456 0c0e 1360     		str	r3, [r2]
 306:src/m5_app.c  ****                 ESOS_TASK_SIGNAL_AVAILABLE_OUT_COMM(); 
 2457              		.loc 1 306 17 discriminator 9 view .LVU644
 306:src/m5_app.c  ****                 ESOS_TASK_SIGNAL_AVAILABLE_OUT_COMM(); 
 2458              		.loc 1 306 17 discriminator 9 view .LVU645
 2459 0c10 7E4B     		ldr	r3, .L324+4
 2460 0c12 0022     		movs	r2, #0
 2461 0c14 1A80     		strh	r2, [r3]	@ movhi
 306:src/m5_app.c  ****                 ESOS_TASK_SIGNAL_AVAILABLE_OUT_COMM(); 
 2462              		.loc 1 306 17 discriminator 9 view .LVU646
 306:src/m5_app.c  ****                 ESOS_TASK_SIGNAL_AVAILABLE_OUT_COMM(); 
 2463              		.loc 1 306 17 discriminator 9 view .LVU647
 306:src/m5_app.c  ****                 ESOS_TASK_SIGNAL_AVAILABLE_OUT_COMM(); 
 2464              		.loc 1 306 17 discriminator 9 view .LVU648
 306:src/m5_app.c  ****                 ESOS_TASK_SIGNAL_AVAILABLE_OUT_COMM(); 
 2465              		.loc 1 306 17 discriminator 9 view .LVU649
 2466 0c16 4FF49973 		mov	r3, #306
 2467 0c1a 2380     		strh	r3, [r4]	@ movhi
 2468              	.L86:
 306:src/m5_app.c  ****                 ESOS_TASK_SIGNAL_AVAILABLE_OUT_COMM(); 
 2469              		.loc 1 306 17 discriminator 1 view .LVU650
 306:src/m5_app.c  ****                 ESOS_TASK_SIGNAL_AVAILABLE_OUT_COMM(); 
 2470              		.loc 1 306 17 discriminator 1 view .LVU651
 2471 0c1c A578     		ldrb	r5, [r4, #2]	@ zero_extendqisi2
 2472 0c1e 15F00405 		ands	r5, r5, #4
 2473 0c22 30D1     		bne	.L298
 306:src/m5_app.c  ****                 ESOS_TASK_SIGNAL_AVAILABLE_OUT_COMM(); 
 2474              		.loc 1 306 17 discriminator 3 view .LVU652
 2475 0c24 7A4B     		ldr	r3, .L324+8
 2476 0c26 1A78     		ldrb	r2, [r3]	@ zero_extendqisi2
 2477 0c28 7A4B     		ldr	r3, .L324+12
 2478 0c2a 1B78     		ldrb	r3, [r3]	@ zero_extendqisi2
 2479 0c2c 03EB8203 		add	r3, r3, r2, lsl #2
 2480 0c30 794A     		ldr	r2, .L324+16
 2481 0c32 12F82310 		ldrb	r1, [r2, r3, lsl #2]	@ zero_extendqisi2
 2482 0c36 7548     		ldr	r0, .L324+4
 2483 0c38 FFF7FEFF 		bl	__esos_OutChar
 2484              	.LVL43:
 2485 0c3c 0228     		cmp	r0, #2
 2486 0c3e 26D9     		bls	.L202
 306:src/m5_app.c  ****                 ESOS_TASK_SIGNAL_AVAILABLE_OUT_COMM(); 
 2487              		.loc 1 306 17 discriminator 4 view .LVU653
 2488 0c40 A378     		ldrb	r3, [r4, #2]	@ zero_extendqisi2
 2489 0c42 23F00103 		bic	r3, r3, #1
 2490 0c46 A370     		strb	r3, [r4, #2]
 2491              	.L203:
 306:src/m5_app.c  ****                 ESOS_TASK_SIGNAL_AVAILABLE_OUT_COMM(); 
 2492              		.loc 1 306 17 discriminator 7 view .LVU654
 2493 0c48 A378     		ldrb	r3, [r4, #2]	@ zero_extendqisi2
 2494 0c4a 13F0010F 		tst	r3, #1
 2495 0c4e 40F0FD82 		bne	.L112
 306:src/m5_app.c  ****                 ESOS_TASK_SIGNAL_AVAILABLE_OUT_COMM(); 
 2496              		.loc 1 306 17 discriminator 9 view .LVU655
 306:src/m5_app.c  ****                 ESOS_TASK_SIGNAL_AVAILABLE_OUT_COMM(); 
 2497              		.loc 1 306 17 discriminator 9 view .LVU656
ARM GAS  /tmp/ccZiTkxd.s 			page 61


 307:src/m5_app.c  ****               }
 2498              		.loc 1 307 17 discriminator 9 view .LVU657
 2499 0c52 6D4A     		ldr	r2, .L324
 2500 0c54 1368     		ldr	r3, [r2]
 2501 0c56 23F00403 		bic	r3, r3, #4
 2502 0c5a 1360     		str	r3, [r2]
 303:src/m5_app.c  ****               {
 2503              		.loc 1 303 34 discriminator 9 view .LVU658
 303:src/m5_app.c  ****               {
 2504              		.loc 1 303 35 is_stmt 0 discriminator 9 view .LVU659
 2505 0c5c 6D4A     		ldr	r2, .L324+12
 2506 0c5e 1378     		ldrb	r3, [r2]	@ zero_extendqisi2
 2507 0c60 0133     		adds	r3, r3, #1
 2508 0c62 1370     		strb	r3, [r2]
 2509              	.L197:
 303:src/m5_app.c  ****               {
 2510              		.loc 1 303 27 is_stmt 1 discriminator 2 view .LVU660
 303:src/m5_app.c  ****               {
 2511              		.loc 1 303 29 is_stmt 0 discriminator 2 view .LVU661
 2512 0c64 6B4B     		ldr	r3, .L324+12
 2513 0c66 1B78     		ldrb	r3, [r3]	@ zero_extendqisi2
 303:src/m5_app.c  ****               {
 2514              		.loc 1 303 15 discriminator 2 view .LVU662
 2515 0c68 032B     		cmp	r3, #3
 2516 0c6a 3FF677AC 		bhi	.L136
 305:src/m5_app.c  ****                 ESOS_TASK_WAIT_ON_SEND_UINT8(sum[chooseLED][i]);
 2517              		.loc 1 305 17 is_stmt 1 view .LVU663
 305:src/m5_app.c  ****                 ESOS_TASK_WAIT_ON_SEND_UINT8(sum[chooseLED][i]);
 2518              		.loc 1 305 17 view .LVU664
 2519 0c6e 40F23113 		movw	r3, #305
 2520 0c72 2380     		strh	r3, [r4]	@ movhi
 2521 0c74 B6E7     		b	.L87
 2522              	.L297:
 305:src/m5_app.c  ****                 ESOS_TASK_WAIT_ON_SEND_UINT8(sum[chooseLED][i]);
 2523              		.loc 1 305 17 discriminator 2 view .LVU665
 2524 0c76 0423     		movs	r3, #4
 2525 0c78 A370     		strb	r3, [r4, #2]
 305:src/m5_app.c  ****                 ESOS_TASK_WAIT_ON_SEND_UINT8(sum[chooseLED][i]);
 2526              		.loc 1 305 17 discriminator 2 view .LVU666
 2527 0c7a 0325     		movs	r5, #3
 2528 0c7c E6E2     		b	.L112
 2529              	.L199:
 305:src/m5_app.c  ****                 ESOS_TASK_WAIT_ON_SEND_UINT8(sum[chooseLED][i]);
 2530              		.loc 1 305 17 discriminator 5 view .LVU667
 2531 0c7e 43F00103 		orr	r3, r3, #1
 2532 0c82 A370     		strb	r3, [r4, #2]
 2533 0c84 BAE7     		b	.L200
 2534              	.L298:
 306:src/m5_app.c  ****                 ESOS_TASK_SIGNAL_AVAILABLE_OUT_COMM(); 
 2535              		.loc 1 306 17 discriminator 2 view .LVU668
 2536 0c86 0423     		movs	r3, #4
 2537 0c88 A370     		strb	r3, [r4, #2]
 306:src/m5_app.c  ****                 ESOS_TASK_SIGNAL_AVAILABLE_OUT_COMM(); 
 2538              		.loc 1 306 17 discriminator 2 view .LVU669
 2539 0c8a 0325     		movs	r5, #3
 2540 0c8c DEE2     		b	.L112
 2541              	.L202:
ARM GAS  /tmp/ccZiTkxd.s 			page 62


 306:src/m5_app.c  ****                 ESOS_TASK_SIGNAL_AVAILABLE_OUT_COMM(); 
 2542              		.loc 1 306 17 discriminator 5 view .LVU670
 2543 0c8e A378     		ldrb	r3, [r4, #2]	@ zero_extendqisi2
 2544 0c90 43F00103 		orr	r3, r3, #1
 2545 0c94 A370     		strb	r3, [r4, #2]
 2546 0c96 D7E7     		b	.L203
 2547              	.L294:
 312:src/m5_app.c  ****               {
 2548              		.loc 1 312 15 view .LVU671
 312:src/m5_app.c  ****               {
 2549              		.loc 1 312 22 is_stmt 0 view .LVU672
 2550 0c98 5E4B     		ldr	r3, .L324+12
 2551 0c9a 0022     		movs	r2, #0
 2552 0c9c 1A70     		strb	r2, [r3]
 312:src/m5_app.c  ****               {
 2553              		.loc 1 312 15 view .LVU673
 2554 0c9e 3FE0     		b	.L206
 2555              	.L85:
 314:src/m5_app.c  ****                 ESOS_TASK_WAIT_ON_SEND_UINT8(sum[chooseLED][i]);
 2556              		.loc 1 314 17 is_stmt 1 discriminator 1 view .LVU674
 314:src/m5_app.c  ****                 ESOS_TASK_WAIT_ON_SEND_UINT8(sum[chooseLED][i]);
 2557              		.loc 1 314 17 discriminator 1 view .LVU675
 2558 0ca0 A378     		ldrb	r3, [r4, #2]	@ zero_extendqisi2
 2559 0ca2 13F00405 		ands	r5, r3, #4
 2560 0ca6 44D1     		bne	.L299
 314:src/m5_app.c  ****                 ESOS_TASK_WAIT_ON_SEND_UINT8(sum[chooseLED][i]);
 2561              		.loc 1 314 17 discriminator 3 view .LVU676
 2562 0ca8 574A     		ldr	r2, .L324
 2563 0caa 1268     		ldr	r2, [r2]
 2564 0cac 12F0040F 		tst	r2, #4
 2565 0cb0 43D1     		bne	.L208
 314:src/m5_app.c  ****                 ESOS_TASK_WAIT_ON_SEND_UINT8(sum[chooseLED][i]);
 2566              		.loc 1 314 17 discriminator 4 view .LVU677
 2567 0cb2 23F00103 		bic	r3, r3, #1
 2568 0cb6 A370     		strb	r3, [r4, #2]
 2569              	.L209:
 314:src/m5_app.c  ****                 ESOS_TASK_WAIT_ON_SEND_UINT8(sum[chooseLED][i]);
 2570              		.loc 1 314 17 discriminator 7 view .LVU678
 2571 0cb8 A378     		ldrb	r3, [r4, #2]	@ zero_extendqisi2
 2572 0cba 13F0010F 		tst	r3, #1
 2573 0cbe 40F0C582 		bne	.L112
 314:src/m5_app.c  ****                 ESOS_TASK_WAIT_ON_SEND_UINT8(sum[chooseLED][i]);
 2574              		.loc 1 314 17 discriminator 9 view .LVU679
 314:src/m5_app.c  ****                 ESOS_TASK_WAIT_ON_SEND_UINT8(sum[chooseLED][i]);
 2575              		.loc 1 314 17 discriminator 9 view .LVU680
 2576 0cc2 514A     		ldr	r2, .L324
 2577 0cc4 1368     		ldr	r3, [r2]
 2578 0cc6 43F00403 		orr	r3, r3, #4
 2579 0cca 1360     		str	r3, [r2]
 315:src/m5_app.c  ****                 ESOS_TASK_SIGNAL_AVAILABLE_OUT_COMM(); 
 2580              		.loc 1 315 17 discriminator 9 view .LVU681
 315:src/m5_app.c  ****                 ESOS_TASK_SIGNAL_AVAILABLE_OUT_COMM(); 
 2581              		.loc 1 315 17 discriminator 9 view .LVU682
 2582 0ccc 4F4B     		ldr	r3, .L324+4
 2583 0cce 0022     		movs	r2, #0
 2584 0cd0 1A80     		strh	r2, [r3]	@ movhi
 315:src/m5_app.c  ****                 ESOS_TASK_SIGNAL_AVAILABLE_OUT_COMM(); 
ARM GAS  /tmp/ccZiTkxd.s 			page 63


 2585              		.loc 1 315 17 discriminator 9 view .LVU683
 315:src/m5_app.c  ****                 ESOS_TASK_SIGNAL_AVAILABLE_OUT_COMM(); 
 2586              		.loc 1 315 17 discriminator 9 view .LVU684
 315:src/m5_app.c  ****                 ESOS_TASK_SIGNAL_AVAILABLE_OUT_COMM(); 
 2587              		.loc 1 315 17 discriminator 9 view .LVU685
 315:src/m5_app.c  ****                 ESOS_TASK_SIGNAL_AVAILABLE_OUT_COMM(); 
 2588              		.loc 1 315 17 discriminator 9 view .LVU686
 2589 0cd2 40F23B13 		movw	r3, #315
 2590 0cd6 2380     		strh	r3, [r4]	@ movhi
 2591              	.L84:
 315:src/m5_app.c  ****                 ESOS_TASK_SIGNAL_AVAILABLE_OUT_COMM(); 
 2592              		.loc 1 315 17 discriminator 1 view .LVU687
 315:src/m5_app.c  ****                 ESOS_TASK_SIGNAL_AVAILABLE_OUT_COMM(); 
 2593              		.loc 1 315 17 discriminator 1 view .LVU688
 2594 0cd8 A578     		ldrb	r5, [r4, #2]	@ zero_extendqisi2
 2595 0cda 15F00405 		ands	r5, r5, #4
 2596 0cde 30D1     		bne	.L300
 315:src/m5_app.c  ****                 ESOS_TASK_SIGNAL_AVAILABLE_OUT_COMM(); 
 2597              		.loc 1 315 17 discriminator 3 view .LVU689
 2598 0ce0 4B4B     		ldr	r3, .L324+8
 2599 0ce2 1A78     		ldrb	r2, [r3]	@ zero_extendqisi2
 2600 0ce4 4B4B     		ldr	r3, .L324+12
 2601 0ce6 1B78     		ldrb	r3, [r3]	@ zero_extendqisi2
 2602 0ce8 03EB8203 		add	r3, r3, r2, lsl #2
 2603 0cec 4A4A     		ldr	r2, .L324+16
 2604 0cee 12F82310 		ldrb	r1, [r2, r3, lsl #2]	@ zero_extendqisi2
 2605 0cf2 4648     		ldr	r0, .L324+4
 2606 0cf4 FFF7FEFF 		bl	__esos_OutChar
 2607              	.LVL44:
 2608 0cf8 0228     		cmp	r0, #2
 2609 0cfa 26D9     		bls	.L211
 315:src/m5_app.c  ****                 ESOS_TASK_SIGNAL_AVAILABLE_OUT_COMM(); 
 2610              		.loc 1 315 17 discriminator 4 view .LVU690
 2611 0cfc A378     		ldrb	r3, [r4, #2]	@ zero_extendqisi2
 2612 0cfe 23F00103 		bic	r3, r3, #1
 2613 0d02 A370     		strb	r3, [r4, #2]
 2614              	.L212:
 315:src/m5_app.c  ****                 ESOS_TASK_SIGNAL_AVAILABLE_OUT_COMM(); 
 2615              		.loc 1 315 17 discriminator 7 view .LVU691
 2616 0d04 A378     		ldrb	r3, [r4, #2]	@ zero_extendqisi2
 2617 0d06 13F0010F 		tst	r3, #1
 2618 0d0a 40F09F82 		bne	.L112
 315:src/m5_app.c  ****                 ESOS_TASK_SIGNAL_AVAILABLE_OUT_COMM(); 
 2619              		.loc 1 315 17 discriminator 9 view .LVU692
 315:src/m5_app.c  ****                 ESOS_TASK_SIGNAL_AVAILABLE_OUT_COMM(); 
 2620              		.loc 1 315 17 discriminator 9 view .LVU693
 316:src/m5_app.c  ****               }
 2621              		.loc 1 316 17 discriminator 9 view .LVU694
 2622 0d0e 3E4A     		ldr	r2, .L324
 2623 0d10 1368     		ldr	r3, [r2]
 2624 0d12 23F00403 		bic	r3, r3, #4
 2625 0d16 1360     		str	r3, [r2]
 312:src/m5_app.c  ****               {
 2626              		.loc 1 312 34 discriminator 9 view .LVU695
 312:src/m5_app.c  ****               {
 2627              		.loc 1 312 35 is_stmt 0 discriminator 9 view .LVU696
 2628 0d18 3E4A     		ldr	r2, .L324+12
ARM GAS  /tmp/ccZiTkxd.s 			page 64


 2629 0d1a 1378     		ldrb	r3, [r2]	@ zero_extendqisi2
 2630 0d1c 0133     		adds	r3, r3, #1
 2631 0d1e 1370     		strb	r3, [r2]
 2632              	.L206:
 312:src/m5_app.c  ****               {
 2633              		.loc 1 312 27 is_stmt 1 discriminator 2 view .LVU697
 312:src/m5_app.c  ****               {
 2634              		.loc 1 312 29 is_stmt 0 discriminator 2 view .LVU698
 2635 0d20 3C4B     		ldr	r3, .L324+12
 2636 0d22 1B78     		ldrb	r3, [r3]	@ zero_extendqisi2
 312:src/m5_app.c  ****               {
 2637              		.loc 1 312 15 discriminator 2 view .LVU699
 2638 0d24 032B     		cmp	r3, #3
 2639 0d26 3FF619AC 		bhi	.L136
 314:src/m5_app.c  ****                 ESOS_TASK_WAIT_ON_SEND_UINT8(sum[chooseLED][i]);
 2640              		.loc 1 314 17 is_stmt 1 view .LVU700
 314:src/m5_app.c  ****                 ESOS_TASK_WAIT_ON_SEND_UINT8(sum[chooseLED][i]);
 2641              		.loc 1 314 17 view .LVU701
 2642 0d2a 4FF49D73 		mov	r3, #314
 2643 0d2e 2380     		strh	r3, [r4]	@ movhi
 2644 0d30 B6E7     		b	.L85
 2645              	.L299:
 314:src/m5_app.c  ****                 ESOS_TASK_WAIT_ON_SEND_UINT8(sum[chooseLED][i]);
 2646              		.loc 1 314 17 discriminator 2 view .LVU702
 2647 0d32 0423     		movs	r3, #4
 2648 0d34 A370     		strb	r3, [r4, #2]
 314:src/m5_app.c  ****                 ESOS_TASK_WAIT_ON_SEND_UINT8(sum[chooseLED][i]);
 2649              		.loc 1 314 17 discriminator 2 view .LVU703
 2650 0d36 0325     		movs	r5, #3
 2651 0d38 88E2     		b	.L112
 2652              	.L208:
 314:src/m5_app.c  ****                 ESOS_TASK_WAIT_ON_SEND_UINT8(sum[chooseLED][i]);
 2653              		.loc 1 314 17 discriminator 5 view .LVU704
 2654 0d3a 43F00103 		orr	r3, r3, #1
 2655 0d3e A370     		strb	r3, [r4, #2]
 2656 0d40 BAE7     		b	.L209
 2657              	.L300:
 315:src/m5_app.c  ****                 ESOS_TASK_SIGNAL_AVAILABLE_OUT_COMM(); 
 2658              		.loc 1 315 17 discriminator 2 view .LVU705
 2659 0d42 0423     		movs	r3, #4
 2660 0d44 A370     		strb	r3, [r4, #2]
 315:src/m5_app.c  ****                 ESOS_TASK_SIGNAL_AVAILABLE_OUT_COMM(); 
 2661              		.loc 1 315 17 discriminator 2 view .LVU706
 2662 0d46 0325     		movs	r5, #3
 2663 0d48 80E2     		b	.L112
 2664              	.L211:
 315:src/m5_app.c  ****                 ESOS_TASK_SIGNAL_AVAILABLE_OUT_COMM(); 
 2665              		.loc 1 315 17 discriminator 5 view .LVU707
 2666 0d4a A378     		ldrb	r3, [r4, #2]	@ zero_extendqisi2
 2667 0d4c 43F00103 		orr	r3, r3, #1
 2668 0d50 A370     		strb	r3, [r4, #2]
 2669 0d52 D7E7     		b	.L212
 2670              	.L221:
 323:src/m5_app.c  ****                 ESOS_TASK_WAIT_ON_SEND_UINT8(sum[chooseLED][i]);
 2671              		.loc 1 323 17 view .LVU708
 323:src/m5_app.c  ****                 ESOS_TASK_WAIT_ON_SEND_UINT8(sum[chooseLED][i]);
 2672              		.loc 1 323 17 view .LVU709
ARM GAS  /tmp/ccZiTkxd.s 			page 65


 2673 0d54 40F24313 		movw	r3, #323
 2674 0d58 2380     		strh	r3, [r4]	@ movhi
 2675              	.L83:
 323:src/m5_app.c  ****                 ESOS_TASK_WAIT_ON_SEND_UINT8(sum[chooseLED][i]);
 2676              		.loc 1 323 17 discriminator 1 view .LVU710
 323:src/m5_app.c  ****                 ESOS_TASK_WAIT_ON_SEND_UINT8(sum[chooseLED][i]);
 2677              		.loc 1 323 17 discriminator 1 view .LVU711
 2678 0d5a A378     		ldrb	r3, [r4, #2]	@ zero_extendqisi2
 2679 0d5c 13F00405 		ands	r5, r3, #4
 2680 0d60 41D1     		bne	.L301
 323:src/m5_app.c  ****                 ESOS_TASK_WAIT_ON_SEND_UINT8(sum[chooseLED][i]);
 2681              		.loc 1 323 17 discriminator 3 view .LVU712
 2682 0d62 294A     		ldr	r2, .L324
 2683 0d64 1268     		ldr	r2, [r2]
 2684 0d66 12F0040F 		tst	r2, #4
 2685 0d6a 40D1     		bne	.L216
 323:src/m5_app.c  ****                 ESOS_TASK_WAIT_ON_SEND_UINT8(sum[chooseLED][i]);
 2686              		.loc 1 323 17 discriminator 4 view .LVU713
 2687 0d6c 23F00103 		bic	r3, r3, #1
 2688 0d70 A370     		strb	r3, [r4, #2]
 2689              	.L217:
 323:src/m5_app.c  ****                 ESOS_TASK_WAIT_ON_SEND_UINT8(sum[chooseLED][i]);
 2690              		.loc 1 323 17 discriminator 7 view .LVU714
 2691 0d72 A378     		ldrb	r3, [r4, #2]	@ zero_extendqisi2
 2692 0d74 13F0010F 		tst	r3, #1
 2693 0d78 40F06882 		bne	.L112
 323:src/m5_app.c  ****                 ESOS_TASK_WAIT_ON_SEND_UINT8(sum[chooseLED][i]);
 2694              		.loc 1 323 17 discriminator 9 view .LVU715
 323:src/m5_app.c  ****                 ESOS_TASK_WAIT_ON_SEND_UINT8(sum[chooseLED][i]);
 2695              		.loc 1 323 17 discriminator 9 view .LVU716
 2696 0d7c 224A     		ldr	r2, .L324
 2697 0d7e 1368     		ldr	r3, [r2]
 2698 0d80 43F00403 		orr	r3, r3, #4
 2699 0d84 1360     		str	r3, [r2]
 324:src/m5_app.c  ****                 ESOS_TASK_SIGNAL_AVAILABLE_OUT_COMM(); 
 2700              		.loc 1 324 17 discriminator 9 view .LVU717
 324:src/m5_app.c  ****                 ESOS_TASK_SIGNAL_AVAILABLE_OUT_COMM(); 
 2701              		.loc 1 324 17 discriminator 9 view .LVU718
 2702 0d86 214B     		ldr	r3, .L324+4
 2703 0d88 0022     		movs	r2, #0
 2704 0d8a 1A80     		strh	r2, [r3]	@ movhi
 324:src/m5_app.c  ****                 ESOS_TASK_SIGNAL_AVAILABLE_OUT_COMM(); 
 2705              		.loc 1 324 17 discriminator 9 view .LVU719
 324:src/m5_app.c  ****                 ESOS_TASK_SIGNAL_AVAILABLE_OUT_COMM(); 
 2706              		.loc 1 324 17 discriminator 9 view .LVU720
 324:src/m5_app.c  ****                 ESOS_TASK_SIGNAL_AVAILABLE_OUT_COMM(); 
 2707              		.loc 1 324 17 discriminator 9 view .LVU721
 324:src/m5_app.c  ****                 ESOS_TASK_SIGNAL_AVAILABLE_OUT_COMM(); 
 2708              		.loc 1 324 17 discriminator 9 view .LVU722
 2709 0d8c 4FF4A273 		mov	r3, #324
 2710 0d90 2380     		strh	r3, [r4]	@ movhi
 2711              	.L82:
 324:src/m5_app.c  ****                 ESOS_TASK_SIGNAL_AVAILABLE_OUT_COMM(); 
 2712              		.loc 1 324 17 discriminator 1 view .LVU723
 324:src/m5_app.c  ****                 ESOS_TASK_SIGNAL_AVAILABLE_OUT_COMM(); 
 2713              		.loc 1 324 17 discriminator 1 view .LVU724
 2714 0d92 A578     		ldrb	r5, [r4, #2]	@ zero_extendqisi2
ARM GAS  /tmp/ccZiTkxd.s 			page 66


 2715 0d94 15F00405 		ands	r5, r5, #4
 2716 0d98 2DD1     		bne	.L302
 324:src/m5_app.c  ****                 ESOS_TASK_SIGNAL_AVAILABLE_OUT_COMM(); 
 2717              		.loc 1 324 17 discriminator 3 view .LVU725
 2718 0d9a 1D4B     		ldr	r3, .L324+8
 2719 0d9c 1A78     		ldrb	r2, [r3]	@ zero_extendqisi2
 2720 0d9e 1D4B     		ldr	r3, .L324+12
 2721 0da0 1B78     		ldrb	r3, [r3]	@ zero_extendqisi2
 2722 0da2 03EB8203 		add	r3, r3, r2, lsl #2
 2723 0da6 1C4A     		ldr	r2, .L324+16
 2724 0da8 12F82310 		ldrb	r1, [r2, r3, lsl #2]	@ zero_extendqisi2
 2725 0dac 1748     		ldr	r0, .L324+4
 2726 0dae FFF7FEFF 		bl	__esos_OutChar
 2727              	.LVL45:
 2728 0db2 0228     		cmp	r0, #2
 2729 0db4 23D9     		bls	.L219
 324:src/m5_app.c  ****                 ESOS_TASK_SIGNAL_AVAILABLE_OUT_COMM(); 
 2730              		.loc 1 324 17 discriminator 4 view .LVU726
 2731 0db6 A378     		ldrb	r3, [r4, #2]	@ zero_extendqisi2
 2732 0db8 23F00103 		bic	r3, r3, #1
 2733 0dbc A370     		strb	r3, [r4, #2]
 2734              	.L220:
 324:src/m5_app.c  ****                 ESOS_TASK_SIGNAL_AVAILABLE_OUT_COMM(); 
 2735              		.loc 1 324 17 discriminator 7 view .LVU727
 2736 0dbe A378     		ldrb	r3, [r4, #2]	@ zero_extendqisi2
 2737 0dc0 13F0010F 		tst	r3, #1
 2738 0dc4 40F04282 		bne	.L112
 324:src/m5_app.c  ****                 ESOS_TASK_SIGNAL_AVAILABLE_OUT_COMM(); 
 2739              		.loc 1 324 17 discriminator 9 view .LVU728
 324:src/m5_app.c  ****                 ESOS_TASK_SIGNAL_AVAILABLE_OUT_COMM(); 
 2740              		.loc 1 324 17 discriminator 9 view .LVU729
 325:src/m5_app.c  ****                 
 2741              		.loc 1 325 17 discriminator 9 view .LVU730
 2742 0dc8 0F4A     		ldr	r2, .L324
 2743 0dca 1368     		ldr	r3, [r2]
 2744 0dcc 23F00403 		bic	r3, r3, #4
 2745 0dd0 1360     		str	r3, [r2]
 321:src/m5_app.c  ****               {
 2746              		.loc 1 321 34 discriminator 9 view .LVU731
 321:src/m5_app.c  ****               {
 2747              		.loc 1 321 35 is_stmt 0 discriminator 9 view .LVU732
 2748 0dd2 104A     		ldr	r2, .L324+12
 2749 0dd4 1378     		ldrb	r3, [r2]	@ zero_extendqisi2
 2750 0dd6 0133     		adds	r3, r3, #1
 2751 0dd8 1370     		strb	r3, [r2]
 2752              	.L214:
 321:src/m5_app.c  ****               {
 2753              		.loc 1 321 27 is_stmt 1 discriminator 2 view .LVU733
 321:src/m5_app.c  ****               {
 2754              		.loc 1 321 29 is_stmt 0 discriminator 2 view .LVU734
 2755 0dda 0E4B     		ldr	r3, .L324+12
 2756 0ddc 1B78     		ldrb	r3, [r3]	@ zero_extendqisi2
 321:src/m5_app.c  ****               {
 2757              		.loc 1 321 15 discriminator 2 view .LVU735
 2758 0dde 032B     		cmp	r3, #3
 2759 0de0 B8D9     		bls	.L221
 2760 0de2 FFF7BBBB 		b	.L136
ARM GAS  /tmp/ccZiTkxd.s 			page 67


 2761              	.L301:
 323:src/m5_app.c  ****                 ESOS_TASK_WAIT_ON_SEND_UINT8(sum[chooseLED][i]);
 2762              		.loc 1 323 17 is_stmt 1 discriminator 2 view .LVU736
 2763 0de6 0423     		movs	r3, #4
 2764 0de8 A370     		strb	r3, [r4, #2]
 323:src/m5_app.c  ****                 ESOS_TASK_WAIT_ON_SEND_UINT8(sum[chooseLED][i]);
 2765              		.loc 1 323 17 discriminator 2 view .LVU737
 2766 0dea 0325     		movs	r5, #3
 2767 0dec 2EE2     		b	.L112
 2768              	.L216:
 323:src/m5_app.c  ****                 ESOS_TASK_WAIT_ON_SEND_UINT8(sum[chooseLED][i]);
 2769              		.loc 1 323 17 discriminator 5 view .LVU738
 2770 0dee 43F00103 		orr	r3, r3, #1
 2771 0df2 A370     		strb	r3, [r4, #2]
 2772 0df4 BDE7     		b	.L217
 2773              	.L302:
 324:src/m5_app.c  ****                 ESOS_TASK_SIGNAL_AVAILABLE_OUT_COMM(); 
 2774              		.loc 1 324 17 discriminator 2 view .LVU739
 2775 0df6 0423     		movs	r3, #4
 2776 0df8 A370     		strb	r3, [r4, #2]
 324:src/m5_app.c  ****                 ESOS_TASK_SIGNAL_AVAILABLE_OUT_COMM(); 
 2777              		.loc 1 324 17 discriminator 2 view .LVU740
 2778 0dfa 0325     		movs	r5, #3
 2779 0dfc 26E2     		b	.L112
 2780              	.L219:
 324:src/m5_app.c  ****                 ESOS_TASK_SIGNAL_AVAILABLE_OUT_COMM(); 
 2781              		.loc 1 324 17 discriminator 5 view .LVU741
 2782 0dfe A378     		ldrb	r3, [r4, #2]	@ zero_extendqisi2
 2783 0e00 43F00103 		orr	r3, r3, #1
 2784 0e04 A370     		strb	r3, [r4, #2]
 2785 0e06 DAE7     		b	.L220
 2786              	.L325:
 2787              		.align	2
 2788              	.L324:
 2789 0e08 00000000 		.word	__esos_u32SystemFlags
 2790 0e0c 00000000 		.word	__stChildTaskTx
 2791 0e10 00000000 		.word	.LANCHOR9
 2792 0e14 00000000 		.word	.LANCHOR6
 2793 0e18 00000000 		.word	.LANCHOR7
 2794              	.L119:
 344:src/m5_app.c  **** 
 2795              		.loc 1 344 14 view .LVU742
 344:src/m5_app.c  **** 
 2796              		.loc 1 344 18 is_stmt 0 view .LVU743
 2797 0e1c 4FF40061 		mov	r1, #2048
 2798 0e20 9948     		ldr	r0, .L326
 2799 0e22 FFF7FEFF 		bl	gpio_get
 2800              	.LVL46:
 344:src/m5_app.c  **** 
 2801              		.loc 1 344 17 view .LVU744
 2802 0e26 0028     		cmp	r0, #0
 2803 0e28 74D0     		beq	.L223
 346:src/m5_app.c  ****             ESOS_TASK_WAIT_ON_AVAILABLE_OUT_COMM();
 2804              		.loc 1 346 11 is_stmt 1 view .LVU745
 346:src/m5_app.c  ****             ESOS_TASK_WAIT_ON_AVAILABLE_OUT_COMM();
 2805              		.loc 1 346 14 is_stmt 0 view .LVU746
 2806 0e2a 984B     		ldr	r3, .L326+4
ARM GAS  /tmp/ccZiTkxd.s 			page 68


 2807 0e2c 1A78     		ldrb	r2, [r3]	@ zero_extendqisi2
 2808 0e2e 984B     		ldr	r3, .L326+8
 2809 0e30 D35C     		ldrb	r3, [r2, r3]	@ zero_extendqisi2
 346:src/m5_app.c  ****             ESOS_TASK_WAIT_ON_AVAILABLE_OUT_COMM();
 2810              		.loc 1 346 13 view .LVU747
 2811 0e32 13F0070F 		tst	r3, #7
 2812 0e36 52D0     		beq	.L67
 347:src/m5_app.c  ****             ESOS_TASK_WAIT_ON_SEND_UINT8(input);
 2813              		.loc 1 347 13 is_stmt 1 view .LVU748
 347:src/m5_app.c  ****             ESOS_TASK_WAIT_ON_SEND_UINT8(input);
 2814              		.loc 1 347 13 view .LVU749
 2815 0e38 40F25B13 		movw	r3, #347
 2816 0e3c 2380     		strh	r3, [r4]	@ movhi
 2817              	.L81:
 347:src/m5_app.c  ****             ESOS_TASK_WAIT_ON_SEND_UINT8(input);
 2818              		.loc 1 347 13 discriminator 1 view .LVU750
 347:src/m5_app.c  ****             ESOS_TASK_WAIT_ON_SEND_UINT8(input);
 2819              		.loc 1 347 13 discriminator 1 view .LVU751
 2820 0e3e A378     		ldrb	r3, [r4, #2]	@ zero_extendqisi2
 2821 0e40 13F00405 		ands	r5, r3, #4
 2822 0e44 55D1     		bne	.L303
 347:src/m5_app.c  ****             ESOS_TASK_WAIT_ON_SEND_UINT8(input);
 2823              		.loc 1 347 13 discriminator 3 view .LVU752
 2824 0e46 934A     		ldr	r2, .L326+12
 2825 0e48 1268     		ldr	r2, [r2]
 2826 0e4a 12F0040F 		tst	r2, #4
 2827 0e4e 54D1     		bne	.L225
 347:src/m5_app.c  ****             ESOS_TASK_WAIT_ON_SEND_UINT8(input);
 2828              		.loc 1 347 13 discriminator 4 view .LVU753
 2829 0e50 23F00103 		bic	r3, r3, #1
 2830 0e54 A370     		strb	r3, [r4, #2]
 2831              	.L226:
 347:src/m5_app.c  ****             ESOS_TASK_WAIT_ON_SEND_UINT8(input);
 2832              		.loc 1 347 13 discriminator 7 view .LVU754
 2833 0e56 A378     		ldrb	r3, [r4, #2]	@ zero_extendqisi2
 2834 0e58 13F0010F 		tst	r3, #1
 2835 0e5c 40F0F681 		bne	.L112
 347:src/m5_app.c  ****             ESOS_TASK_WAIT_ON_SEND_UINT8(input);
 2836              		.loc 1 347 13 discriminator 9 view .LVU755
 347:src/m5_app.c  ****             ESOS_TASK_WAIT_ON_SEND_UINT8(input);
 2837              		.loc 1 347 13 discriminator 9 view .LVU756
 2838 0e60 8C4A     		ldr	r2, .L326+12
 2839 0e62 1368     		ldr	r3, [r2]
 2840 0e64 43F00403 		orr	r3, r3, #4
 2841 0e68 1360     		str	r3, [r2]
 348:src/m5_app.c  ****             ESOS_TASK_SIGNAL_AVAILABLE_OUT_COMM(); 
 2842              		.loc 1 348 13 discriminator 9 view .LVU757
 348:src/m5_app.c  ****             ESOS_TASK_SIGNAL_AVAILABLE_OUT_COMM(); 
 2843              		.loc 1 348 13 discriminator 9 view .LVU758
 2844 0e6a 8B4B     		ldr	r3, .L326+16
 2845 0e6c 0022     		movs	r2, #0
 2846 0e6e 1A80     		strh	r2, [r3]	@ movhi
 348:src/m5_app.c  ****             ESOS_TASK_SIGNAL_AVAILABLE_OUT_COMM(); 
 2847              		.loc 1 348 13 discriminator 9 view .LVU759
 348:src/m5_app.c  ****             ESOS_TASK_SIGNAL_AVAILABLE_OUT_COMM(); 
 2848              		.loc 1 348 13 discriminator 9 view .LVU760
 348:src/m5_app.c  ****             ESOS_TASK_SIGNAL_AVAILABLE_OUT_COMM(); 
ARM GAS  /tmp/ccZiTkxd.s 			page 69


 2849              		.loc 1 348 13 discriminator 9 view .LVU761
 348:src/m5_app.c  ****             ESOS_TASK_SIGNAL_AVAILABLE_OUT_COMM(); 
 2850              		.loc 1 348 13 discriminator 9 view .LVU762
 2851 0e70 4FF4AE73 		mov	r3, #348
 2852 0e74 2380     		strh	r3, [r4]	@ movhi
 2853              	.L80:
 348:src/m5_app.c  ****             ESOS_TASK_SIGNAL_AVAILABLE_OUT_COMM(); 
 2854              		.loc 1 348 13 discriminator 1 view .LVU763
 348:src/m5_app.c  ****             ESOS_TASK_SIGNAL_AVAILABLE_OUT_COMM(); 
 2855              		.loc 1 348 13 discriminator 1 view .LVU764
 2856 0e76 A578     		ldrb	r5, [r4, #2]	@ zero_extendqisi2
 2857 0e78 15F00405 		ands	r5, r5, #4
 2858 0e7c 41D1     		bne	.L304
 348:src/m5_app.c  ****             ESOS_TASK_SIGNAL_AVAILABLE_OUT_COMM(); 
 2859              		.loc 1 348 13 discriminator 3 view .LVU765
 2860 0e7e 834B     		ldr	r3, .L326+4
 2861 0e80 1978     		ldrb	r1, [r3]	@ zero_extendqisi2
 2862 0e82 8548     		ldr	r0, .L326+16
 2863 0e84 FFF7FEFF 		bl	__esos_OutChar
 2864              	.LVL47:
 2865 0e88 0228     		cmp	r0, #2
 2866 0e8a 3ED9     		bls	.L228
 348:src/m5_app.c  ****             ESOS_TASK_SIGNAL_AVAILABLE_OUT_COMM(); 
 2867              		.loc 1 348 13 discriminator 4 view .LVU766
 2868 0e8c A378     		ldrb	r3, [r4, #2]	@ zero_extendqisi2
 2869 0e8e 23F00103 		bic	r3, r3, #1
 2870 0e92 A370     		strb	r3, [r4, #2]
 2871              	.L229:
 348:src/m5_app.c  ****             ESOS_TASK_SIGNAL_AVAILABLE_OUT_COMM(); 
 2872              		.loc 1 348 13 discriminator 7 view .LVU767
 2873 0e94 A378     		ldrb	r3, [r4, #2]	@ zero_extendqisi2
 2874 0e96 13F0010F 		tst	r3, #1
 2875 0e9a 40F0D781 		bne	.L112
 348:src/m5_app.c  ****             ESOS_TASK_SIGNAL_AVAILABLE_OUT_COMM(); 
 2876              		.loc 1 348 13 discriminator 9 view .LVU768
 348:src/m5_app.c  ****             ESOS_TASK_SIGNAL_AVAILABLE_OUT_COMM(); 
 2877              		.loc 1 348 13 discriminator 9 view .LVU769
 349:src/m5_app.c  ****           }
 2878              		.loc 1 349 13 discriminator 9 view .LVU770
 2879 0e9e 7D4A     		ldr	r2, .L326+12
 2880 0ea0 1368     		ldr	r3, [r2]
 2881 0ea2 23F00403 		bic	r3, r3, #4
 2882 0ea6 1360     		str	r3, [r2]
 355:src/m5_app.c  ****         }
 2883              		.loc 1 355 11 discriminator 9 view .LVU771
 355:src/m5_app.c  ****         }
 2884              		.loc 1 355 17 is_stmt 0 discriminator 9 view .LVU772
 2885 0ea8 784B     		ldr	r3, .L326+4
 2886 0eaa 0022     		movs	r2, #0
 2887 0eac 1A70     		strb	r2, [r3]
 2888              	.L222:
 389:src/m5_app.c  ****       }
 2889              		.loc 1 389 9 is_stmt 1 view .LVU773
 389:src/m5_app.c  ****       }
 2890              		.loc 1 389 9 view .LVU774
 2891 0eae A378     		ldrb	r3, [r4, #2]	@ zero_extendqisi2
 2892 0eb0 03F07F03 		and	r3, r3, #127
ARM GAS  /tmp/ccZiTkxd.s 			page 70


 2893 0eb4 A370     		strb	r3, [r4, #2]
 389:src/m5_app.c  ****       }
 2894              		.loc 1 389 9 view .LVU775
 389:src/m5_app.c  ****       }
 2895              		.loc 1 389 9 view .LVU776
 2896 0eb6 40F28513 		movw	r3, #389
 2897 0eba 2380     		strh	r3, [r4]	@ movhi
 2898              	.L71:
 389:src/m5_app.c  ****       }
 2899              		.loc 1 389 9 discriminator 1 view .LVU777
 389:src/m5_app.c  ****       }
 2900              		.loc 1 389 9 discriminator 1 view .LVU778
 2901 0ebc A378     		ldrb	r3, [r4, #2]	@ zero_extendqisi2
 2902 0ebe 13F00405 		ands	r5, r3, #4
 2903 0ec2 40F0C081 		bne	.L305
 389:src/m5_app.c  ****       }
 2904              		.loc 1 389 9 discriminator 3 view .LVU779
 2905 0ec6 13F0800F 		tst	r3, #128
 2906 0eca 40F0C181 		bne	.L306
 389:src/m5_app.c  ****       }
 2907              		.loc 1 389 9 discriminator 5 view .LVU780
 2908 0ece 43F00103 		orr	r3, r3, #1
 2909 0ed2 A370     		strb	r3, [r4, #2]
 2910              	.L261:
 389:src/m5_app.c  ****       }
 2911              		.loc 1 389 9 discriminator 7 view .LVU781
 2912 0ed4 A378     		ldrb	r3, [r4, #2]	@ zero_extendqisi2
 2913 0ed6 13F0010F 		tst	r3, #1
 2914 0eda 40F0B781 		bne	.L112
 2915              	.L67:
 173:src/m5_app.c  ****     while (TRUE)
 2916              		.loc 1 173 20 discriminator 1 view .LVU782
 174:src/m5_app.c  ****     {
 2917              		.loc 1 174 5 discriminator 1 view .LVU783
 177:src/m5_app.c  ****   {
 2918              		.loc 1 177 3 discriminator 1 view .LVU784
 177:src/m5_app.c  ****   {
 2919              		.loc 1 177 15 is_stmt 0 discriminator 1 view .LVU785
 2920 0ede 6F4B     		ldr	r3, .L326+20
 2921 0ee0 1B78     		ldrb	r3, [r3]	@ zero_extendqisi2
 177:src/m5_app.c  ****   {
 2922              		.loc 1 177 6 discriminator 1 view .LVU786
 2923 0ee2 002B     		cmp	r3, #0
 2924 0ee4 7FF480A9 		bne	.L108
 179:src/m5_app.c  ****     {
 2925              		.loc 1 179 5 is_stmt 1 view .LVU787
 179:src/m5_app.c  ****     {
 2926              		.loc 1 179 12 is_stmt 0 view .LVU788
 2927 0ee8 6D4B     		ldr	r3, .L326+24
 2928 0eea 0022     		movs	r2, #0
 2929 0eec 1A70     		strb	r2, [r3]
 179:src/m5_app.c  ****     {
 2930              		.loc 1 179 5 view .LVU789
 2931 0eee FFF777B9 		b	.L109
 2932              	.L303:
 347:src/m5_app.c  ****             ESOS_TASK_WAIT_ON_SEND_UINT8(input);
 2933              		.loc 1 347 13 is_stmt 1 discriminator 2 view .LVU790
ARM GAS  /tmp/ccZiTkxd.s 			page 71


 2934 0ef2 0423     		movs	r3, #4
 2935 0ef4 A370     		strb	r3, [r4, #2]
 347:src/m5_app.c  ****             ESOS_TASK_WAIT_ON_SEND_UINT8(input);
 2936              		.loc 1 347 13 discriminator 2 view .LVU791
 2937 0ef6 0325     		movs	r5, #3
 2938 0ef8 A8E1     		b	.L112
 2939              	.L225:
 347:src/m5_app.c  ****             ESOS_TASK_WAIT_ON_SEND_UINT8(input);
 2940              		.loc 1 347 13 discriminator 5 view .LVU792
 2941 0efa 43F00103 		orr	r3, r3, #1
 2942 0efe A370     		strb	r3, [r4, #2]
 2943 0f00 A9E7     		b	.L226
 2944              	.L304:
 348:src/m5_app.c  ****             ESOS_TASK_SIGNAL_AVAILABLE_OUT_COMM(); 
 2945              		.loc 1 348 13 discriminator 2 view .LVU793
 2946 0f02 0423     		movs	r3, #4
 2947 0f04 A370     		strb	r3, [r4, #2]
 348:src/m5_app.c  ****             ESOS_TASK_SIGNAL_AVAILABLE_OUT_COMM(); 
 2948              		.loc 1 348 13 discriminator 2 view .LVU794
 2949 0f06 0325     		movs	r5, #3
 2950 0f08 A0E1     		b	.L112
 2951              	.L228:
 348:src/m5_app.c  ****             ESOS_TASK_SIGNAL_AVAILABLE_OUT_COMM(); 
 2952              		.loc 1 348 13 discriminator 5 view .LVU795
 2953 0f0a A378     		ldrb	r3, [r4, #2]	@ zero_extendqisi2
 2954 0f0c 43F00103 		orr	r3, r3, #1
 2955 0f10 A370     		strb	r3, [r4, #2]
 2956 0f12 BFE7     		b	.L229
 2957              	.L223:
 358:src/m5_app.c  **** 
 2958              		.loc 1 358 14 view .LVU796
 358:src/m5_app.c  **** 
 2959              		.loc 1 358 17 is_stmt 0 view .LVU797
 2960 0f14 4FF48061 		mov	r1, #1024
 2961 0f18 5B48     		ldr	r0, .L326
 2962 0f1a FFF7FEFF 		bl	gpio_get
 2963              	.LVL48:
 358:src/m5_app.c  **** 
 2964              		.loc 1 358 16 view .LVU798
 2965 0f1e 0028     		cmp	r0, #0
 2966 0f20 58D0     		beq	.L230
 360:src/m5_app.c  ****           ESOS_TASK_WAIT_ON_AVAILABLE_OUT_COMM();
 2967              		.loc 1 360 11 is_stmt 1 view .LVU799
 2968              	.LBB2:
 360:src/m5_app.c  ****           ESOS_TASK_WAIT_ON_AVAILABLE_OUT_COMM();
 2969              		.loc 1 360 21 view .LVU800
 2970 0f22 5A4B     		ldr	r3, .L326+4
 2971 0f24 1B78     		ldrb	r3, [r3]	@ zero_extendqisi2
 2972              	.LVL49:
 360:src/m5_app.c  ****           ESOS_TASK_WAIT_ON_AVAILABLE_OUT_COMM();
 2973              		.loc 1 360 21 view .LVU801
 2974 0f26 5A4A     		ldr	r2, .L326+8
 2975 0f28 9A5C     		ldrb	r2, [r3, r2]	@ zero_extendqisi2
 2976 0f2a 02F00302 		and	r2, r2, #3
 2977 0f2e 022A     		cmp	r2, #2
 2978 0f30 3DD0     		beq	.L307
 2979              	.LVL50:
ARM GAS  /tmp/ccZiTkxd.s 			page 72


 2980              	.L232:
 360:src/m5_app.c  ****           ESOS_TASK_WAIT_ON_AVAILABLE_OUT_COMM();
 2981              		.loc 1 360 21 is_stmt 0 view .LVU802
 2982              	.LBE2:
 360:src/m5_app.c  ****           ESOS_TASK_WAIT_ON_AVAILABLE_OUT_COMM();
 2983              		.loc 1 360 19 discriminator 4 view .LVU803
 2984 0f32 5C4A     		ldr	r2, .L326+28
 2985 0f34 1370     		strb	r3, [r2]
 361:src/m5_app.c  ****           ESOS_TASK_WAIT_ON_SEND_UINT8(toUpper);
 2986              		.loc 1 361 11 is_stmt 1 discriminator 4 view .LVU804
 361:src/m5_app.c  ****           ESOS_TASK_WAIT_ON_SEND_UINT8(toUpper);
 2987              		.loc 1 361 11 discriminator 4 view .LVU805
 2988 0f36 40F26913 		movw	r3, #361
 2989 0f3a 2380     		strh	r3, [r4]	@ movhi
 2990              	.LVL51:
 2991              	.L79:
 361:src/m5_app.c  ****           ESOS_TASK_WAIT_ON_SEND_UINT8(toUpper);
 2992              		.loc 1 361 11 discriminator 1 view .LVU806
 361:src/m5_app.c  ****           ESOS_TASK_WAIT_ON_SEND_UINT8(toUpper);
 2993              		.loc 1 361 11 discriminator 1 view .LVU807
 2994 0f3c A378     		ldrb	r3, [r4, #2]	@ zero_extendqisi2
 2995 0f3e 13F00405 		ands	r5, r3, #4
 2996 0f42 36D1     		bne	.L308
 361:src/m5_app.c  ****           ESOS_TASK_WAIT_ON_SEND_UINT8(toUpper);
 2997              		.loc 1 361 11 discriminator 3 view .LVU808
 2998 0f44 534A     		ldr	r2, .L326+12
 2999 0f46 1268     		ldr	r2, [r2]
 3000 0f48 12F0040F 		tst	r2, #4
 3001 0f4c 35D1     		bne	.L234
 361:src/m5_app.c  ****           ESOS_TASK_WAIT_ON_SEND_UINT8(toUpper);
 3002              		.loc 1 361 11 discriminator 4 view .LVU809
 3003 0f4e 23F00103 		bic	r3, r3, #1
 3004 0f52 A370     		strb	r3, [r4, #2]
 3005              	.L235:
 361:src/m5_app.c  ****           ESOS_TASK_WAIT_ON_SEND_UINT8(toUpper);
 3006              		.loc 1 361 11 discriminator 7 view .LVU810
 3007 0f54 A378     		ldrb	r3, [r4, #2]	@ zero_extendqisi2
 3008 0f56 13F0010F 		tst	r3, #1
 3009 0f5a 40F07781 		bne	.L112
 361:src/m5_app.c  ****           ESOS_TASK_WAIT_ON_SEND_UINT8(toUpper);
 3010              		.loc 1 361 11 discriminator 9 view .LVU811
 361:src/m5_app.c  ****           ESOS_TASK_WAIT_ON_SEND_UINT8(toUpper);
 3011              		.loc 1 361 11 discriminator 9 view .LVU812
 3012 0f5e 4D4A     		ldr	r2, .L326+12
 3013 0f60 1368     		ldr	r3, [r2]
 3014 0f62 43F00403 		orr	r3, r3, #4
 3015 0f66 1360     		str	r3, [r2]
 362:src/m5_app.c  ****           ESOS_TASK_SIGNAL_AVAILABLE_OUT_COMM();  
 3016              		.loc 1 362 11 discriminator 9 view .LVU813
 362:src/m5_app.c  ****           ESOS_TASK_SIGNAL_AVAILABLE_OUT_COMM();  
 3017              		.loc 1 362 11 discriminator 9 view .LVU814
 3018 0f68 4B4B     		ldr	r3, .L326+16
 3019 0f6a 0022     		movs	r2, #0
 3020 0f6c 1A80     		strh	r2, [r3]	@ movhi
 362:src/m5_app.c  ****           ESOS_TASK_SIGNAL_AVAILABLE_OUT_COMM();  
 3021              		.loc 1 362 11 discriminator 9 view .LVU815
 362:src/m5_app.c  ****           ESOS_TASK_SIGNAL_AVAILABLE_OUT_COMM();  
ARM GAS  /tmp/ccZiTkxd.s 			page 73


 3022              		.loc 1 362 11 discriminator 9 view .LVU816
 362:src/m5_app.c  ****           ESOS_TASK_SIGNAL_AVAILABLE_OUT_COMM();  
 3023              		.loc 1 362 11 discriminator 9 view .LVU817
 362:src/m5_app.c  ****           ESOS_TASK_SIGNAL_AVAILABLE_OUT_COMM();  
 3024              		.loc 1 362 11 discriminator 9 view .LVU818
 3025 0f6e 4FF4B573 		mov	r3, #362
 3026 0f72 2380     		strh	r3, [r4]	@ movhi
 3027              	.L78:
 362:src/m5_app.c  ****           ESOS_TASK_SIGNAL_AVAILABLE_OUT_COMM();  
 3028              		.loc 1 362 11 discriminator 1 view .LVU819
 362:src/m5_app.c  ****           ESOS_TASK_SIGNAL_AVAILABLE_OUT_COMM();  
 3029              		.loc 1 362 11 discriminator 1 view .LVU820
 3030 0f74 A578     		ldrb	r5, [r4, #2]	@ zero_extendqisi2
 3031 0f76 15F00405 		ands	r5, r5, #4
 3032 0f7a 22D1     		bne	.L309
 362:src/m5_app.c  ****           ESOS_TASK_SIGNAL_AVAILABLE_OUT_COMM();  
 3033              		.loc 1 362 11 discriminator 3 view .LVU821
 3034 0f7c 494B     		ldr	r3, .L326+28
 3035 0f7e 1978     		ldrb	r1, [r3]	@ zero_extendqisi2
 3036 0f80 4548     		ldr	r0, .L326+16
 3037 0f82 FFF7FEFF 		bl	__esos_OutChar
 3038              	.LVL52:
 3039 0f86 0228     		cmp	r0, #2
 3040 0f88 1FD9     		bls	.L237
 362:src/m5_app.c  ****           ESOS_TASK_SIGNAL_AVAILABLE_OUT_COMM();  
 3041              		.loc 1 362 11 discriminator 4 view .LVU822
 3042 0f8a A378     		ldrb	r3, [r4, #2]	@ zero_extendqisi2
 3043 0f8c 23F00103 		bic	r3, r3, #1
 3044 0f90 A370     		strb	r3, [r4, #2]
 3045              	.L238:
 362:src/m5_app.c  ****           ESOS_TASK_SIGNAL_AVAILABLE_OUT_COMM();  
 3046              		.loc 1 362 11 discriminator 7 view .LVU823
 3047 0f92 A378     		ldrb	r3, [r4, #2]	@ zero_extendqisi2
 3048 0f94 13F0010F 		tst	r3, #1
 3049 0f98 40F05881 		bne	.L112
 362:src/m5_app.c  ****           ESOS_TASK_SIGNAL_AVAILABLE_OUT_COMM();  
 3050              		.loc 1 362 11 discriminator 9 view .LVU824
 362:src/m5_app.c  ****           ESOS_TASK_SIGNAL_AVAILABLE_OUT_COMM();  
 3051              		.loc 1 362 11 discriminator 9 view .LVU825
 363:src/m5_app.c  ****           
 3052              		.loc 1 363 11 discriminator 9 view .LVU826
 3053 0f9c 3D4A     		ldr	r2, .L326+12
 3054 0f9e 1368     		ldr	r3, [r2]
 3055 0fa0 23F00403 		bic	r3, r3, #4
 3056 0fa4 1360     		str	r3, [r2]
 365:src/m5_app.c  ****         }
 3057              		.loc 1 365 11 discriminator 9 view .LVU827
 365:src/m5_app.c  ****         }
 3058              		.loc 1 365 17 is_stmt 0 discriminator 9 view .LVU828
 3059 0fa6 394B     		ldr	r3, .L326+4
 3060 0fa8 0022     		movs	r2, #0
 3061 0faa 1A70     		strb	r2, [r3]
 3062 0fac 7FE7     		b	.L222
 3063              	.LVL53:
 3064              	.L307:
 3065              	.LBB3:
 360:src/m5_app.c  ****           ESOS_TASK_WAIT_ON_AVAILABLE_OUT_COMM();
ARM GAS  /tmp/ccZiTkxd.s 			page 74


 3066              		.loc 1 360 21 discriminator 1 view .LVU829
 3067 0fae 203B     		subs	r3, r3, #32
 3068              	.LVL54:
 360:src/m5_app.c  ****           ESOS_TASK_WAIT_ON_AVAILABLE_OUT_COMM();
 3069              		.loc 1 360 21 discriminator 1 view .LVU830
 3070 0fb0 BFE7     		b	.L232
 3071              	.LVL55:
 3072              	.L308:
 360:src/m5_app.c  ****           ESOS_TASK_WAIT_ON_AVAILABLE_OUT_COMM();
 3073              		.loc 1 360 21 discriminator 1 view .LVU831
 3074              	.LBE3:
 361:src/m5_app.c  ****           ESOS_TASK_WAIT_ON_SEND_UINT8(toUpper);
 3075              		.loc 1 361 11 is_stmt 1 discriminator 2 view .LVU832
 3076 0fb2 0423     		movs	r3, #4
 3077 0fb4 A370     		strb	r3, [r4, #2]
 361:src/m5_app.c  ****           ESOS_TASK_WAIT_ON_SEND_UINT8(toUpper);
 3078              		.loc 1 361 11 discriminator 2 view .LVU833
 3079 0fb6 0325     		movs	r5, #3
 3080 0fb8 48E1     		b	.L112
 3081              	.L234:
 361:src/m5_app.c  ****           ESOS_TASK_WAIT_ON_SEND_UINT8(toUpper);
 3082              		.loc 1 361 11 discriminator 5 view .LVU834
 3083 0fba 43F00103 		orr	r3, r3, #1
 3084 0fbe A370     		strb	r3, [r4, #2]
 3085 0fc0 C8E7     		b	.L235
 3086              	.L309:
 362:src/m5_app.c  ****           ESOS_TASK_SIGNAL_AVAILABLE_OUT_COMM();  
 3087              		.loc 1 362 11 discriminator 2 view .LVU835
 3088 0fc2 0423     		movs	r3, #4
 3089 0fc4 A370     		strb	r3, [r4, #2]
 362:src/m5_app.c  ****           ESOS_TASK_SIGNAL_AVAILABLE_OUT_COMM();  
 3090              		.loc 1 362 11 discriminator 2 view .LVU836
 3091 0fc6 0325     		movs	r5, #3
 3092 0fc8 40E1     		b	.L112
 3093              	.L237:
 362:src/m5_app.c  ****           ESOS_TASK_SIGNAL_AVAILABLE_OUT_COMM();  
 3094              		.loc 1 362 11 discriminator 5 view .LVU837
 3095 0fca A378     		ldrb	r3, [r4, #2]	@ zero_extendqisi2
 3096 0fcc 43F00103 		orr	r3, r3, #1
 3097 0fd0 A370     		strb	r3, [r4, #2]
 3098 0fd2 DEE7     		b	.L238
 3099              	.L230:
 368:src/m5_app.c  ****           encrypt = encypher(input);
 3100              		.loc 1 368 14 view .LVU838
 368:src/m5_app.c  ****           encrypt = encypher(input);
 3101              		.loc 1 368 17 is_stmt 0 view .LVU839
 3102 0fd4 4FF40071 		mov	r1, #512
 3103 0fd8 2B48     		ldr	r0, .L326
 3104 0fda FFF7FEFF 		bl	gpio_get
 3105              	.LVL56:
 368:src/m5_app.c  ****           encrypt = encypher(input);
 3106              		.loc 1 368 16 view .LVU840
 3107 0fde 0028     		cmp	r0, #0
 3108 0fe0 64D0     		beq	.L239
 369:src/m5_app.c  ****           ESOS_TASK_WAIT_ON_AVAILABLE_OUT_COMM();
 3109              		.loc 1 369 11 is_stmt 1 view .LVU841
 369:src/m5_app.c  ****           ESOS_TASK_WAIT_ON_AVAILABLE_OUT_COMM();
ARM GAS  /tmp/ccZiTkxd.s 			page 75


 3110              		.loc 1 369 21 is_stmt 0 view .LVU842
 3111 0fe2 2A4B     		ldr	r3, .L326+4
 3112 0fe4 1878     		ldrb	r0, [r3]	@ zero_extendqisi2
 3113 0fe6 FFF7FEFF 		bl	encypher
 3114              	.LVL57:
 369:src/m5_app.c  ****           ESOS_TASK_WAIT_ON_AVAILABLE_OUT_COMM();
 3115              		.loc 1 369 19 view .LVU843
 3116 0fea 2F4B     		ldr	r3, .L326+32
 3117 0fec 1870     		strb	r0, [r3]
 370:src/m5_app.c  ****           ESOS_TASK_WAIT_ON_SEND_UINT8(encrypt);
 3118              		.loc 1 370 11 is_stmt 1 view .LVU844
 370:src/m5_app.c  ****           ESOS_TASK_WAIT_ON_SEND_UINT8(encrypt);
 3119              		.loc 1 370 11 view .LVU845
 3120 0fee 4FF4B973 		mov	r3, #370
 3121 0ff2 2380     		strh	r3, [r4]	@ movhi
 3122              	.L77:
 370:src/m5_app.c  ****           ESOS_TASK_WAIT_ON_SEND_UINT8(encrypt);
 3123              		.loc 1 370 11 discriminator 1 view .LVU846
 370:src/m5_app.c  ****           ESOS_TASK_WAIT_ON_SEND_UINT8(encrypt);
 3124              		.loc 1 370 11 discriminator 1 view .LVU847
 3125 0ff4 A378     		ldrb	r3, [r4, #2]	@ zero_extendqisi2
 3126 0ff6 13F00405 		ands	r5, r3, #4
 3127 0ffa 34D1     		bne	.L310
 370:src/m5_app.c  ****           ESOS_TASK_WAIT_ON_SEND_UINT8(encrypt);
 3128              		.loc 1 370 11 discriminator 3 view .LVU848
 3129 0ffc 254A     		ldr	r2, .L326+12
 3130 0ffe 1268     		ldr	r2, [r2]
 3131 1000 12F0040F 		tst	r2, #4
 3132 1004 33D1     		bne	.L241
 370:src/m5_app.c  ****           ESOS_TASK_WAIT_ON_SEND_UINT8(encrypt);
 3133              		.loc 1 370 11 discriminator 4 view .LVU849
 3134 1006 23F00103 		bic	r3, r3, #1
 3135 100a A370     		strb	r3, [r4, #2]
 3136              	.L242:
 370:src/m5_app.c  ****           ESOS_TASK_WAIT_ON_SEND_UINT8(encrypt);
 3137              		.loc 1 370 11 discriminator 7 view .LVU850
 3138 100c A378     		ldrb	r3, [r4, #2]	@ zero_extendqisi2
 3139 100e 13F0010F 		tst	r3, #1
 3140 1012 40F01B81 		bne	.L112
 370:src/m5_app.c  ****           ESOS_TASK_WAIT_ON_SEND_UINT8(encrypt);
 3141              		.loc 1 370 11 discriminator 9 view .LVU851
 370:src/m5_app.c  ****           ESOS_TASK_WAIT_ON_SEND_UINT8(encrypt);
 3142              		.loc 1 370 11 discriminator 9 view .LVU852
 3143 1016 1F4A     		ldr	r2, .L326+12
 3144 1018 1368     		ldr	r3, [r2]
 3145 101a 43F00403 		orr	r3, r3, #4
 3146 101e 1360     		str	r3, [r2]
 371:src/m5_app.c  ****           ESOS_TASK_SIGNAL_AVAILABLE_OUT_COMM(); 
 3147              		.loc 1 371 11 discriminator 9 view .LVU853
 371:src/m5_app.c  ****           ESOS_TASK_SIGNAL_AVAILABLE_OUT_COMM(); 
 3148              		.loc 1 371 11 discriminator 9 view .LVU854
 3149 1020 1D4B     		ldr	r3, .L326+16
 3150 1022 0022     		movs	r2, #0
 3151 1024 1A80     		strh	r2, [r3]	@ movhi
 371:src/m5_app.c  ****           ESOS_TASK_SIGNAL_AVAILABLE_OUT_COMM(); 
 3152              		.loc 1 371 11 discriminator 9 view .LVU855
 371:src/m5_app.c  ****           ESOS_TASK_SIGNAL_AVAILABLE_OUT_COMM(); 
ARM GAS  /tmp/ccZiTkxd.s 			page 76


 3153              		.loc 1 371 11 discriminator 9 view .LVU856
 371:src/m5_app.c  ****           ESOS_TASK_SIGNAL_AVAILABLE_OUT_COMM(); 
 3154              		.loc 1 371 11 discriminator 9 view .LVU857
 371:src/m5_app.c  ****           ESOS_TASK_SIGNAL_AVAILABLE_OUT_COMM(); 
 3155              		.loc 1 371 11 discriminator 9 view .LVU858
 3156 1026 40F27313 		movw	r3, #371
 3157 102a 2380     		strh	r3, [r4]	@ movhi
 3158              	.L76:
 371:src/m5_app.c  ****           ESOS_TASK_SIGNAL_AVAILABLE_OUT_COMM(); 
 3159              		.loc 1 371 11 discriminator 1 view .LVU859
 371:src/m5_app.c  ****           ESOS_TASK_SIGNAL_AVAILABLE_OUT_COMM(); 
 3160              		.loc 1 371 11 discriminator 1 view .LVU860
 3161 102c A578     		ldrb	r5, [r4, #2]	@ zero_extendqisi2
 3162 102e 15F00405 		ands	r5, r5, #4
 3163 1032 20D1     		bne	.L311
 371:src/m5_app.c  ****           ESOS_TASK_SIGNAL_AVAILABLE_OUT_COMM(); 
 3164              		.loc 1 371 11 discriminator 3 view .LVU861
 3165 1034 1C4B     		ldr	r3, .L326+32
 3166 1036 1978     		ldrb	r1, [r3]	@ zero_extendqisi2
 3167 1038 1748     		ldr	r0, .L326+16
 3168 103a FFF7FEFF 		bl	__esos_OutChar
 3169              	.LVL58:
 3170 103e 0228     		cmp	r0, #2
 3171 1040 1DD9     		bls	.L244
 371:src/m5_app.c  ****           ESOS_TASK_SIGNAL_AVAILABLE_OUT_COMM(); 
 3172              		.loc 1 371 11 discriminator 4 view .LVU862
 3173 1042 A378     		ldrb	r3, [r4, #2]	@ zero_extendqisi2
 3174 1044 23F00103 		bic	r3, r3, #1
 3175 1048 A370     		strb	r3, [r4, #2]
 3176              	.L245:
 371:src/m5_app.c  ****           ESOS_TASK_SIGNAL_AVAILABLE_OUT_COMM(); 
 3177              		.loc 1 371 11 discriminator 7 view .LVU863
 3178 104a A378     		ldrb	r3, [r4, #2]	@ zero_extendqisi2
 3179 104c 13F0010F 		tst	r3, #1
 3180 1050 40F0FC80 		bne	.L112
 371:src/m5_app.c  ****           ESOS_TASK_SIGNAL_AVAILABLE_OUT_COMM(); 
 3181              		.loc 1 371 11 discriminator 9 view .LVU864
 371:src/m5_app.c  ****           ESOS_TASK_SIGNAL_AVAILABLE_OUT_COMM(); 
 3182              		.loc 1 371 11 discriminator 9 view .LVU865
 372:src/m5_app.c  ****           input = 0;
 3183              		.loc 1 372 11 discriminator 9 view .LVU866
 3184 1054 0F4A     		ldr	r2, .L326+12
 3185 1056 1368     		ldr	r3, [r2]
 3186 1058 23F00403 		bic	r3, r3, #4
 3187 105c 1360     		str	r3, [r2]
 373:src/m5_app.c  ****         }
 3188              		.loc 1 373 11 discriminator 9 view .LVU867
 373:src/m5_app.c  ****         }
 3189              		.loc 1 373 17 is_stmt 0 discriminator 9 view .LVU868
 3190 105e 0B4B     		ldr	r3, .L326+4
 3191 1060 0022     		movs	r2, #0
 3192 1062 1A70     		strb	r2, [r3]
 3193 1064 23E7     		b	.L222
 3194              	.L310:
 370:src/m5_app.c  ****           ESOS_TASK_WAIT_ON_SEND_UINT8(encrypt);
 3195              		.loc 1 370 11 is_stmt 1 discriminator 2 view .LVU869
 3196 1066 0423     		movs	r3, #4
ARM GAS  /tmp/ccZiTkxd.s 			page 77


 3197 1068 A370     		strb	r3, [r4, #2]
 370:src/m5_app.c  ****           ESOS_TASK_WAIT_ON_SEND_UINT8(encrypt);
 3198              		.loc 1 370 11 discriminator 2 view .LVU870
 3199 106a 0325     		movs	r5, #3
 3200 106c EEE0     		b	.L112
 3201              	.L241:
 370:src/m5_app.c  ****           ESOS_TASK_WAIT_ON_SEND_UINT8(encrypt);
 3202              		.loc 1 370 11 discriminator 5 view .LVU871
 3203 106e 43F00103 		orr	r3, r3, #1
 3204 1072 A370     		strb	r3, [r4, #2]
 3205 1074 CAE7     		b	.L242
 3206              	.L311:
 371:src/m5_app.c  ****           ESOS_TASK_SIGNAL_AVAILABLE_OUT_COMM(); 
 3207              		.loc 1 371 11 discriminator 2 view .LVU872
 3208 1076 0423     		movs	r3, #4
 3209 1078 A370     		strb	r3, [r4, #2]
 371:src/m5_app.c  ****           ESOS_TASK_SIGNAL_AVAILABLE_OUT_COMM(); 
 3210              		.loc 1 371 11 discriminator 2 view .LVU873
 3211 107a 0325     		movs	r5, #3
 3212 107c E6E0     		b	.L112
 3213              	.L244:
 371:src/m5_app.c  ****           ESOS_TASK_SIGNAL_AVAILABLE_OUT_COMM(); 
 3214              		.loc 1 371 11 discriminator 5 view .LVU874
 3215 107e A378     		ldrb	r3, [r4, #2]	@ zero_extendqisi2
 3216 1080 43F00103 		orr	r3, r3, #1
 3217 1084 A370     		strb	r3, [r4, #2]
 3218 1086 E0E7     		b	.L245
 3219              	.L327:
 3220              		.align	2
 3221              	.L326:
 3222 1088 00040048 		.word	1207960576
 3223 108c 00000000 		.word	.LANCHOR8
 3224 1090 01000000 		.word	_ctype_+1
 3225 1094 00000000 		.word	__esos_u32SystemFlags
 3226 1098 00000000 		.word	__stChildTaskTx
 3227 109c 00000000 		.word	.LANCHOR5
 3228 10a0 00000000 		.word	.LANCHOR6
 3229 10a4 00000000 		.word	.LANCHOR11
 3230 10a8 00000000 		.word	.LANCHOR12
 3231              	.L239:
 376:src/m5_app.c  ****           decrypt = decypher(input);
 3232              		.loc 1 376 14 view .LVU875
 376:src/m5_app.c  ****           decrypt = decypher(input);
 3233              		.loc 1 376 17 is_stmt 0 view .LVU876
 3234 10ac 4FF48071 		mov	r1, #256
 3235 10b0 7148     		ldr	r0, .L328
 3236 10b2 FFF7FEFF 		bl	gpio_get
 3237              	.LVL59:
 376:src/m5_app.c  ****           decrypt = decypher(input);
 3238              		.loc 1 376 16 view .LVU877
 3239 10b6 0028     		cmp	r0, #0
 3240 10b8 52D0     		beq	.L246
 3241              	.LBB4:
 377:src/m5_app.c  ****           ESOS_TASK_WAIT_ON_AVAILABLE_OUT_COMM();
 3242              		.loc 1 377 11 is_stmt 1 view .LVU878
 377:src/m5_app.c  ****           ESOS_TASK_WAIT_ON_AVAILABLE_OUT_COMM();
 3243              		.loc 1 377 21 is_stmt 0 view .LVU879
ARM GAS  /tmp/ccZiTkxd.s 			page 78


 3244 10ba 704B     		ldr	r3, .L328+4
 3245 10bc 1878     		ldrb	r0, [r3]	@ zero_extendqisi2
 3246 10be FFF7FEFF 		bl	decypher
 3247              	.LVL60:
 377:src/m5_app.c  ****           ESOS_TASK_WAIT_ON_AVAILABLE_OUT_COMM();
 3248              		.loc 1 377 19 view .LVU880
 3249 10c2 6F4B     		ldr	r3, .L328+8
 3250 10c4 1870     		strb	r0, [r3]
 378:src/m5_app.c  ****           ESOS_TASK_WAIT_ON_SEND_UINT8(decrypt);
 3251              		.loc 1 378 11 is_stmt 1 view .LVU881
 378:src/m5_app.c  ****           ESOS_TASK_WAIT_ON_SEND_UINT8(decrypt);
 3252              		.loc 1 378 11 view .LVU882
 3253 10c6 4FF4BD73 		mov	r3, #378
 3254 10ca 2380     		strh	r3, [r4]	@ movhi
 3255              	.L75:
 378:src/m5_app.c  ****           ESOS_TASK_WAIT_ON_SEND_UINT8(decrypt);
 3256              		.loc 1 378 11 discriminator 1 view .LVU883
 378:src/m5_app.c  ****           ESOS_TASK_WAIT_ON_SEND_UINT8(decrypt);
 3257              		.loc 1 378 11 discriminator 1 view .LVU884
 3258 10cc A378     		ldrb	r3, [r4, #2]	@ zero_extendqisi2
 3259 10ce 13F00405 		ands	r5, r3, #4
 3260 10d2 34D1     		bne	.L312
 378:src/m5_app.c  ****           ESOS_TASK_WAIT_ON_SEND_UINT8(decrypt);
 3261              		.loc 1 378 11 discriminator 3 view .LVU885
 3262 10d4 6B4A     		ldr	r2, .L328+12
 3263 10d6 1268     		ldr	r2, [r2]
 3264 10d8 12F0040F 		tst	r2, #4
 3265 10dc 33D1     		bne	.L248
 378:src/m5_app.c  ****           ESOS_TASK_WAIT_ON_SEND_UINT8(decrypt);
 3266              		.loc 1 378 11 discriminator 4 view .LVU886
 3267 10de 23F00103 		bic	r3, r3, #1
 3268 10e2 A370     		strb	r3, [r4, #2]
 3269              	.L249:
 378:src/m5_app.c  ****           ESOS_TASK_WAIT_ON_SEND_UINT8(decrypt);
 3270              		.loc 1 378 11 discriminator 7 view .LVU887
 3271 10e4 A378     		ldrb	r3, [r4, #2]	@ zero_extendqisi2
 3272 10e6 13F0010F 		tst	r3, #1
 3273 10ea 40F0AF80 		bne	.L112
 378:src/m5_app.c  ****           ESOS_TASK_WAIT_ON_SEND_UINT8(decrypt);
 3274              		.loc 1 378 11 discriminator 9 view .LVU888
 378:src/m5_app.c  ****           ESOS_TASK_WAIT_ON_SEND_UINT8(decrypt);
 3275              		.loc 1 378 11 discriminator 9 view .LVU889
 3276 10ee 654A     		ldr	r2, .L328+12
 3277 10f0 1368     		ldr	r3, [r2]
 3278 10f2 43F00403 		orr	r3, r3, #4
 3279 10f6 1360     		str	r3, [r2]
 379:src/m5_app.c  ****           ESOS_TASK_SIGNAL_AVAILABLE_OUT_COMM(); 
 3280              		.loc 1 379 11 discriminator 9 view .LVU890
 379:src/m5_app.c  ****           ESOS_TASK_SIGNAL_AVAILABLE_OUT_COMM(); 
 3281              		.loc 1 379 11 discriminator 9 view .LVU891
 3282 10f8 634B     		ldr	r3, .L328+16
 3283 10fa 0022     		movs	r2, #0
 3284 10fc 1A80     		strh	r2, [r3]	@ movhi
 379:src/m5_app.c  ****           ESOS_TASK_SIGNAL_AVAILABLE_OUT_COMM(); 
 3285              		.loc 1 379 11 discriminator 9 view .LVU892
 379:src/m5_app.c  ****           ESOS_TASK_SIGNAL_AVAILABLE_OUT_COMM(); 
 3286              		.loc 1 379 11 discriminator 9 view .LVU893
ARM GAS  /tmp/ccZiTkxd.s 			page 79


 379:src/m5_app.c  ****           ESOS_TASK_SIGNAL_AVAILABLE_OUT_COMM(); 
 3287              		.loc 1 379 11 discriminator 9 view .LVU894
 379:src/m5_app.c  ****           ESOS_TASK_SIGNAL_AVAILABLE_OUT_COMM(); 
 3288              		.loc 1 379 11 discriminator 9 view .LVU895
 3289 10fe 40F27B13 		movw	r3, #379
 3290 1102 2380     		strh	r3, [r4]	@ movhi
 3291              	.L74:
 379:src/m5_app.c  ****           ESOS_TASK_SIGNAL_AVAILABLE_OUT_COMM(); 
 3292              		.loc 1 379 11 discriminator 1 view .LVU896
 379:src/m5_app.c  ****           ESOS_TASK_SIGNAL_AVAILABLE_OUT_COMM(); 
 3293              		.loc 1 379 11 discriminator 1 view .LVU897
 3294 1104 A578     		ldrb	r5, [r4, #2]	@ zero_extendqisi2
 3295 1106 15F00405 		ands	r5, r5, #4
 3296 110a 20D1     		bne	.L313
 379:src/m5_app.c  ****           ESOS_TASK_SIGNAL_AVAILABLE_OUT_COMM(); 
 3297              		.loc 1 379 11 discriminator 3 view .LVU898
 3298 110c 5C4B     		ldr	r3, .L328+8
 3299 110e 1978     		ldrb	r1, [r3]	@ zero_extendqisi2
 3300 1110 5D48     		ldr	r0, .L328+16
 3301 1112 FFF7FEFF 		bl	__esos_OutChar
 3302              	.LVL61:
 3303 1116 0228     		cmp	r0, #2
 3304 1118 1DD9     		bls	.L251
 379:src/m5_app.c  ****           ESOS_TASK_SIGNAL_AVAILABLE_OUT_COMM(); 
 3305              		.loc 1 379 11 discriminator 4 view .LVU899
 3306 111a A378     		ldrb	r3, [r4, #2]	@ zero_extendqisi2
 3307 111c 23F00103 		bic	r3, r3, #1
 3308 1120 A370     		strb	r3, [r4, #2]
 3309              	.L252:
 379:src/m5_app.c  ****           ESOS_TASK_SIGNAL_AVAILABLE_OUT_COMM(); 
 3310              		.loc 1 379 11 discriminator 7 view .LVU900
 3311 1122 A378     		ldrb	r3, [r4, #2]	@ zero_extendqisi2
 3312 1124 13F0010F 		tst	r3, #1
 3313 1128 40F09080 		bne	.L112
 379:src/m5_app.c  ****           ESOS_TASK_SIGNAL_AVAILABLE_OUT_COMM(); 
 3314              		.loc 1 379 11 discriminator 9 view .LVU901
 379:src/m5_app.c  ****           ESOS_TASK_SIGNAL_AVAILABLE_OUT_COMM(); 
 3315              		.loc 1 379 11 discriminator 9 view .LVU902
 380:src/m5_app.c  ****           input = 0;
 3316              		.loc 1 380 11 discriminator 9 view .LVU903
 3317 112c 554A     		ldr	r2, .L328+12
 3318 112e 1368     		ldr	r3, [r2]
 3319 1130 23F00403 		bic	r3, r3, #4
 3320 1134 1360     		str	r3, [r2]
 381:src/m5_app.c  ****         }
 3321              		.loc 1 381 11 discriminator 9 view .LVU904
 381:src/m5_app.c  ****         }
 3322              		.loc 1 381 17 is_stmt 0 discriminator 9 view .LVU905
 3323 1136 514B     		ldr	r3, .L328+4
 3324 1138 0022     		movs	r2, #0
 3325 113a 1A70     		strb	r2, [r3]
 3326              	.LBE4:
 3327 113c B7E6     		b	.L222
 3328              	.L312:
 3329              	.LBB5:
 378:src/m5_app.c  ****           ESOS_TASK_WAIT_ON_SEND_UINT8(decrypt);
 3330              		.loc 1 378 11 is_stmt 1 discriminator 2 view .LVU906
ARM GAS  /tmp/ccZiTkxd.s 			page 80


 3331 113e 0423     		movs	r3, #4
 3332 1140 A370     		strb	r3, [r4, #2]
 378:src/m5_app.c  ****           ESOS_TASK_WAIT_ON_SEND_UINT8(decrypt);
 3333              		.loc 1 378 11 discriminator 2 view .LVU907
 3334 1142 0325     		movs	r5, #3
 3335 1144 82E0     		b	.L112
 3336              	.L248:
 378:src/m5_app.c  ****           ESOS_TASK_WAIT_ON_SEND_UINT8(decrypt);
 3337              		.loc 1 378 11 discriminator 5 view .LVU908
 3338 1146 43F00103 		orr	r3, r3, #1
 3339 114a A370     		strb	r3, [r4, #2]
 3340 114c CAE7     		b	.L249
 3341              	.L313:
 379:src/m5_app.c  ****           ESOS_TASK_SIGNAL_AVAILABLE_OUT_COMM(); 
 3342              		.loc 1 379 11 discriminator 2 view .LVU909
 3343 114e 0423     		movs	r3, #4
 3344 1150 A370     		strb	r3, [r4, #2]
 379:src/m5_app.c  ****           ESOS_TASK_SIGNAL_AVAILABLE_OUT_COMM(); 
 3345              		.loc 1 379 11 discriminator 2 view .LVU910
 3346 1152 0325     		movs	r5, #3
 3347 1154 7AE0     		b	.L112
 3348              	.L251:
 379:src/m5_app.c  ****           ESOS_TASK_SIGNAL_AVAILABLE_OUT_COMM(); 
 3349              		.loc 1 379 11 discriminator 5 view .LVU911
 3350 1156 A378     		ldrb	r3, [r4, #2]	@ zero_extendqisi2
 3351 1158 43F00103 		orr	r3, r3, #1
 3352 115c A370     		strb	r3, [r4, #2]
 3353 115e E0E7     		b	.L252
 3354              	.L246:
 379:src/m5_app.c  ****           ESOS_TASK_SIGNAL_AVAILABLE_OUT_COMM(); 
 3355              		.loc 1 379 11 is_stmt 0 discriminator 5 view .LVU912
 3356              	.LBE5:
 383:src/m5_app.c  ****           ESOS_TASK_WAIT_ON_AVAILABLE_OUT_COMM();
 3357              		.loc 1 383 14 is_stmt 1 view .LVU913
 383:src/m5_app.c  ****           ESOS_TASK_WAIT_ON_AVAILABLE_OUT_COMM();
 3358              		.loc 1 383 17 is_stmt 0 view .LVU914
 3359 1160 4FF40051 		mov	r1, #8192
 3360 1164 4948     		ldr	r0, .L328+20
 3361 1166 FFF7FEFF 		bl	gpio_get
 3362              	.LVL62:
 383:src/m5_app.c  ****           ESOS_TASK_WAIT_ON_AVAILABLE_OUT_COMM();
 3363              		.loc 1 383 16 view .LVU915
 3364 116a 0028     		cmp	r0, #0
 3365 116c 3FF49FAE 		beq	.L222
 383:src/m5_app.c  ****           ESOS_TASK_WAIT_ON_AVAILABLE_OUT_COMM();
 3366              		.loc 1 383 33 discriminator 1 view .LVU916
 3367 1170 4FF40061 		mov	r1, #2048
 3368 1174 4048     		ldr	r0, .L328
 3369 1176 FFF7FEFF 		bl	gpio_get
 3370              	.LVL63:
 383:src/m5_app.c  ****           ESOS_TASK_WAIT_ON_AVAILABLE_OUT_COMM();
 3371              		.loc 1 383 29 discriminator 1 view .LVU917
 3372 117a 0028     		cmp	r0, #0
 3373 117c 7FF497AE 		bne	.L222
 383:src/m5_app.c  ****           ESOS_TASK_WAIT_ON_AVAILABLE_OUT_COMM();
 3374              		.loc 1 383 55 discriminator 2 view .LVU918
 3375 1180 4FF48061 		mov	r1, #1024
ARM GAS  /tmp/ccZiTkxd.s 			page 81


 3376 1184 3C48     		ldr	r0, .L328
 3377 1186 FFF7FEFF 		bl	gpio_get
 3378              	.LVL64:
 383:src/m5_app.c  ****           ESOS_TASK_WAIT_ON_AVAILABLE_OUT_COMM();
 3379              		.loc 1 383 51 discriminator 2 view .LVU919
 3380 118a 0028     		cmp	r0, #0
 3381 118c 7FF48FAE 		bne	.L222
 383:src/m5_app.c  ****           ESOS_TASK_WAIT_ON_AVAILABLE_OUT_COMM();
 3382              		.loc 1 383 77 discriminator 3 view .LVU920
 3383 1190 4FF40071 		mov	r1, #512
 3384 1194 3848     		ldr	r0, .L328
 3385 1196 FFF7FEFF 		bl	gpio_get
 3386              	.LVL65:
 383:src/m5_app.c  ****           ESOS_TASK_WAIT_ON_AVAILABLE_OUT_COMM();
 3387              		.loc 1 383 73 discriminator 3 view .LVU921
 3388 119a 0028     		cmp	r0, #0
 3389 119c 7FF487AE 		bne	.L222
 383:src/m5_app.c  ****           ESOS_TASK_WAIT_ON_AVAILABLE_OUT_COMM();
 3390              		.loc 1 383 99 discriminator 4 view .LVU922
 3391 11a0 4FF48071 		mov	r1, #256
 3392 11a4 3448     		ldr	r0, .L328
 3393 11a6 FFF7FEFF 		bl	gpio_get
 3394              	.LVL66:
 383:src/m5_app.c  ****           ESOS_TASK_WAIT_ON_AVAILABLE_OUT_COMM();
 3395              		.loc 1 383 95 discriminator 4 view .LVU923
 3396 11aa 0028     		cmp	r0, #0
 3397 11ac 7FF47FAE 		bne	.L222
 384:src/m5_app.c  ****           ESOS_TASK_WAIT_ON_SEND_UINT8(input);
 3398              		.loc 1 384 11 is_stmt 1 view .LVU924
 384:src/m5_app.c  ****           ESOS_TASK_WAIT_ON_SEND_UINT8(input);
 3399              		.loc 1 384 11 view .LVU925
 3400 11b0 4FF4C073 		mov	r3, #384
 3401 11b4 2380     		strh	r3, [r4]	@ movhi
 3402              	.L73:
 384:src/m5_app.c  ****           ESOS_TASK_WAIT_ON_SEND_UINT8(input);
 3403              		.loc 1 384 11 discriminator 1 view .LVU926
 384:src/m5_app.c  ****           ESOS_TASK_WAIT_ON_SEND_UINT8(input);
 3404              		.loc 1 384 11 discriminator 1 view .LVU927
 3405 11b6 A378     		ldrb	r3, [r4, #2]	@ zero_extendqisi2
 3406 11b8 13F00405 		ands	r5, r3, #4
 3407 11bc 32D1     		bne	.L314
 384:src/m5_app.c  ****           ESOS_TASK_WAIT_ON_SEND_UINT8(input);
 3408              		.loc 1 384 11 discriminator 3 view .LVU928
 3409 11be 314A     		ldr	r2, .L328+12
 3410 11c0 1268     		ldr	r2, [r2]
 3411 11c2 12F0040F 		tst	r2, #4
 3412 11c6 31D1     		bne	.L254
 384:src/m5_app.c  ****           ESOS_TASK_WAIT_ON_SEND_UINT8(input);
 3413              		.loc 1 384 11 discriminator 4 view .LVU929
 3414 11c8 23F00103 		bic	r3, r3, #1
 3415 11cc A370     		strb	r3, [r4, #2]
 3416              	.L255:
 384:src/m5_app.c  ****           ESOS_TASK_WAIT_ON_SEND_UINT8(input);
 3417              		.loc 1 384 11 discriminator 7 view .LVU930
 3418 11ce A378     		ldrb	r3, [r4, #2]	@ zero_extendqisi2
 3419 11d0 13F0010F 		tst	r3, #1
 3420 11d4 3AD1     		bne	.L112
ARM GAS  /tmp/ccZiTkxd.s 			page 82


 384:src/m5_app.c  ****           ESOS_TASK_WAIT_ON_SEND_UINT8(input);
 3421              		.loc 1 384 11 discriminator 9 view .LVU931
 384:src/m5_app.c  ****           ESOS_TASK_WAIT_ON_SEND_UINT8(input);
 3422              		.loc 1 384 11 discriminator 9 view .LVU932
 3423 11d6 2B4A     		ldr	r2, .L328+12
 3424 11d8 1368     		ldr	r3, [r2]
 3425 11da 43F00403 		orr	r3, r3, #4
 3426 11de 1360     		str	r3, [r2]
 385:src/m5_app.c  ****           ESOS_TASK_SIGNAL_AVAILABLE_OUT_COMM(); 
 3427              		.loc 1 385 11 discriminator 9 view .LVU933
 385:src/m5_app.c  ****           ESOS_TASK_SIGNAL_AVAILABLE_OUT_COMM(); 
 3428              		.loc 1 385 11 discriminator 9 view .LVU934
 3429 11e0 294B     		ldr	r3, .L328+16
 3430 11e2 0022     		movs	r2, #0
 3431 11e4 1A80     		strh	r2, [r3]	@ movhi
 385:src/m5_app.c  ****           ESOS_TASK_SIGNAL_AVAILABLE_OUT_COMM(); 
 3432              		.loc 1 385 11 discriminator 9 view .LVU935
 385:src/m5_app.c  ****           ESOS_TASK_SIGNAL_AVAILABLE_OUT_COMM(); 
 3433              		.loc 1 385 11 discriminator 9 view .LVU936
 385:src/m5_app.c  ****           ESOS_TASK_SIGNAL_AVAILABLE_OUT_COMM(); 
 3434              		.loc 1 385 11 discriminator 9 view .LVU937
 385:src/m5_app.c  ****           ESOS_TASK_SIGNAL_AVAILABLE_OUT_COMM(); 
 3435              		.loc 1 385 11 discriminator 9 view .LVU938
 3436 11e6 40F28113 		movw	r3, #385
 3437 11ea 2380     		strh	r3, [r4]	@ movhi
 3438              	.L72:
 385:src/m5_app.c  ****           ESOS_TASK_SIGNAL_AVAILABLE_OUT_COMM(); 
 3439              		.loc 1 385 11 discriminator 1 view .LVU939
 385:src/m5_app.c  ****           ESOS_TASK_SIGNAL_AVAILABLE_OUT_COMM(); 
 3440              		.loc 1 385 11 discriminator 1 view .LVU940
 3441 11ec A578     		ldrb	r5, [r4, #2]	@ zero_extendqisi2
 3442 11ee 15F00405 		ands	r5, r5, #4
 3443 11f2 1FD1     		bne	.L315
 385:src/m5_app.c  ****           ESOS_TASK_SIGNAL_AVAILABLE_OUT_COMM(); 
 3444              		.loc 1 385 11 discriminator 3 view .LVU941
 3445 11f4 214B     		ldr	r3, .L328+4
 3446 11f6 1978     		ldrb	r1, [r3]	@ zero_extendqisi2
 3447 11f8 2348     		ldr	r0, .L328+16
 3448 11fa FFF7FEFF 		bl	__esos_OutChar
 3449              	.LVL67:
 3450 11fe 0228     		cmp	r0, #2
 3451 1200 1CD9     		bls	.L257
 385:src/m5_app.c  ****           ESOS_TASK_SIGNAL_AVAILABLE_OUT_COMM(); 
 3452              		.loc 1 385 11 discriminator 4 view .LVU942
 3453 1202 A378     		ldrb	r3, [r4, #2]	@ zero_extendqisi2
 3454 1204 23F00103 		bic	r3, r3, #1
 3455 1208 A370     		strb	r3, [r4, #2]
 3456              	.L258:
 385:src/m5_app.c  ****           ESOS_TASK_SIGNAL_AVAILABLE_OUT_COMM(); 
 3457              		.loc 1 385 11 discriminator 7 view .LVU943
 3458 120a A378     		ldrb	r3, [r4, #2]	@ zero_extendqisi2
 3459 120c 13F0010F 		tst	r3, #1
 3460 1210 1CD1     		bne	.L112
 385:src/m5_app.c  ****           ESOS_TASK_SIGNAL_AVAILABLE_OUT_COMM(); 
 3461              		.loc 1 385 11 discriminator 9 view .LVU944
 385:src/m5_app.c  ****           ESOS_TASK_SIGNAL_AVAILABLE_OUT_COMM(); 
 3462              		.loc 1 385 11 discriminator 9 view .LVU945
ARM GAS  /tmp/ccZiTkxd.s 			page 83


 386:src/m5_app.c  ****           input = 0;
 3463              		.loc 1 386 11 discriminator 9 view .LVU946
 3464 1212 1C4A     		ldr	r2, .L328+12
 3465 1214 1368     		ldr	r3, [r2]
 3466 1216 23F00403 		bic	r3, r3, #4
 3467 121a 1360     		str	r3, [r2]
 387:src/m5_app.c  ****         }
 3468              		.loc 1 387 11 discriminator 9 view .LVU947
 387:src/m5_app.c  ****         }
 3469              		.loc 1 387 17 is_stmt 0 discriminator 9 view .LVU948
 3470 121c 174B     		ldr	r3, .L328+4
 3471 121e 0022     		movs	r2, #0
 3472 1220 1A70     		strb	r2, [r3]
 3473 1222 44E6     		b	.L222
 3474              	.L314:
 384:src/m5_app.c  ****           ESOS_TASK_WAIT_ON_SEND_UINT8(input);
 3475              		.loc 1 384 11 is_stmt 1 discriminator 2 view .LVU949
 3476 1224 0423     		movs	r3, #4
 3477 1226 A370     		strb	r3, [r4, #2]
 384:src/m5_app.c  ****           ESOS_TASK_WAIT_ON_SEND_UINT8(input);
 3478              		.loc 1 384 11 discriminator 2 view .LVU950
 3479 1228 0325     		movs	r5, #3
 3480 122a 0FE0     		b	.L112
 3481              	.L254:
 384:src/m5_app.c  ****           ESOS_TASK_WAIT_ON_SEND_UINT8(input);
 3482              		.loc 1 384 11 discriminator 5 view .LVU951
 3483 122c 43F00103 		orr	r3, r3, #1
 3484 1230 A370     		strb	r3, [r4, #2]
 3485 1232 CCE7     		b	.L255
 3486              	.L315:
 385:src/m5_app.c  ****           ESOS_TASK_SIGNAL_AVAILABLE_OUT_COMM(); 
 3487              		.loc 1 385 11 discriminator 2 view .LVU952
 3488 1234 0423     		movs	r3, #4
 3489 1236 A370     		strb	r3, [r4, #2]
 385:src/m5_app.c  ****           ESOS_TASK_SIGNAL_AVAILABLE_OUT_COMM(); 
 3490              		.loc 1 385 11 discriminator 2 view .LVU953
 3491 1238 0325     		movs	r5, #3
 3492 123a 07E0     		b	.L112
 3493              	.L257:
 385:src/m5_app.c  ****           ESOS_TASK_SIGNAL_AVAILABLE_OUT_COMM(); 
 3494              		.loc 1 385 11 discriminator 5 view .LVU954
 3495 123c A378     		ldrb	r3, [r4, #2]	@ zero_extendqisi2
 3496 123e 43F00103 		orr	r3, r3, #1
 3497 1242 A370     		strb	r3, [r4, #2]
 3498 1244 E1E7     		b	.L258
 3499              	.L305:
 389:src/m5_app.c  ****       }
 3500              		.loc 1 389 9 discriminator 2 view .LVU955
 3501 1246 0423     		movs	r3, #4
 3502 1248 A370     		strb	r3, [r4, #2]
 389:src/m5_app.c  ****       }
 3503              		.loc 1 389 9 discriminator 2 view .LVU956
 3504 124a 0325     		movs	r5, #3
 3505              	.L112:
 393:src/m5_app.c  ****       }
 394:src/m5_app.c  ****     
 395:src/m5_app.c  ****     }
ARM GAS  /tmp/ccZiTkxd.s 			page 84


 396:src/m5_app.c  ****   ESOS_TASK_END();
 3506              		.loc 1 396 18 discriminator 1 view .LVU957
 397:src/m5_app.c  **** }
 3507              		.loc 1 397 1 is_stmt 0 discriminator 1 view .LVU958
 3508 124c 2846     		mov	r0, r5
 3509 124e 38BD     		pop	{r3, r4, r5, pc}
 3510              	.LVL68:
 3511              	.L306:
 389:src/m5_app.c  ****       }
 3512              		.loc 1 389 9 is_stmt 1 discriminator 4 view .LVU959
 3513 1250 23F00103 		bic	r3, r3, #1
 3514 1254 A370     		strb	r3, [r4, #2]
 3515 1256 3DE6     		b	.L261
 3516              	.L273:
 392:src/m5_app.c  ****       }
 3517              		.loc 1 392 9 discriminator 2 view .LVU960
 3518 1258 0423     		movs	r3, #4
 3519 125a A370     		strb	r3, [r4, #2]
 392:src/m5_app.c  ****       }
 3520              		.loc 1 392 9 discriminator 2 view .LVU961
 3521 125c 0325     		movs	r5, #3
 3522 125e F5E7     		b	.L112
 3523              	.L274:
 392:src/m5_app.c  ****       }
 3524              		.loc 1 392 9 discriminator 4 view .LVU962
 3525 1260 23F00103 		bic	r3, r3, #1
 3526 1264 A370     		strb	r3, [r4, #2]
 3527 1266 FFF70EB8 		b	.L264
 3528              	.LVL69:
 3529              	.L68:
 396:src/m5_app.c  **** }
 3530              		.loc 1 396 3 view .LVU963
 396:src/m5_app.c  **** }
 3531              		.loc 1 396 3 view .LVU964
 3532 126a 0823     		movs	r3, #8
 3533 126c A370     		strb	r3, [r4, #2]
 396:src/m5_app.c  **** }
 3534              		.loc 1 396 3 view .LVU965
 3535 126e 0023     		movs	r3, #0
 3536 1270 2380     		strh	r3, [r4]	@ movhi
 396:src/m5_app.c  **** }
 3537              		.loc 1 396 3 view .LVU966
 396:src/m5_app.c  **** }
 3538              		.loc 1 396 3 view .LVU967
 396:src/m5_app.c  **** }
 3539              		.loc 1 396 3 view .LVU968
 3540 1272 0325     		movs	r5, #3
 3541 1274 EAE7     		b	.L112
 3542              	.L329:
 3543 1276 00BF     		.align	2
 3544              	.L328:
 3545 1278 00040048 		.word	1207960576
 3546 127c 00000000 		.word	.LANCHOR8
 3547 1280 00000000 		.word	.LANCHOR13
 3548 1284 00000000 		.word	__esos_u32SystemFlags
 3549 1288 00000000 		.word	__stChildTaskTx
 3550 128c 00080048 		.word	1207961600
ARM GAS  /tmp/ccZiTkxd.s 			page 85


 3551              		.cfi_endproc
 3552              	.LFE16:
 3554              		.section	.text.circular_buffer_init,"ax",%progbits
 3555              		.align	1
 3556              		.global	circular_buffer_init
 3557              		.syntax unified
 3558              		.thumb
 3559              		.thumb_func
 3561              	circular_buffer_init:
 3562              	.LVL70:
 3563              	.LFB3:
 3564              		.file 2 "include/circularBuffer.h"
   1:include/circularBuffer.h **** 
   2:include/circularBuffer.h **** #ifndef circularBuffer_H
   3:include/circularBuffer.h **** #define ciruclarBuffer_H
   4:include/circularBuffer.h **** 
   5:include/circularBuffer.h **** #include <inttypes.h>
   6:include/circularBuffer.h **** #include <stdio.h>
   7:include/circularBuffer.h **** 
   8:include/circularBuffer.h **** #define BUFFER_SIZE 256  // size of the circular buffer
   9:include/circularBuffer.h **** 
  10:include/circularBuffer.h **** // Define the buffer structure
  11:include/circularBuffer.h **** typedef struct {
  12:include/circularBuffer.h ****     int buffer[BUFFER_SIZE];
  13:include/circularBuffer.h ****     int head;
  14:include/circularBuffer.h ****     int tail;
  15:include/circularBuffer.h ****     int full;
  16:include/circularBuffer.h **** } CircularBuffer;
  17:include/circularBuffer.h **** 
  18:include/circularBuffer.h **** // Initializes a buffer when called
  19:include/circularBuffer.h **** void circular_buffer_init(CircularBuffer *cb) {
 3565              		.loc 2 19 47 view -0
 3566              		.cfi_startproc
 3567              		@ args = 0, pretend = 0, frame = 0
 3568              		@ frame_needed = 0, uses_anonymous_args = 0
 3569              		@ link register save eliminated.
  20:include/circularBuffer.h ****     cb->head = 0;
 3570              		.loc 2 20 5 view .LVU970
 3571              		.loc 2 20 14 is_stmt 0 view .LVU971
 3572 0000 0023     		movs	r3, #0
 3573 0002 C0F80034 		str	r3, [r0, #1024]
  21:include/circularBuffer.h ****     cb->tail = 0;
 3574              		.loc 2 21 5 is_stmt 1 view .LVU972
 3575              		.loc 2 21 14 is_stmt 0 view .LVU973
 3576 0006 C0F80434 		str	r3, [r0, #1028]
  22:include/circularBuffer.h ****     cb->full = 0;
 3577              		.loc 2 22 5 is_stmt 1 view .LVU974
 3578              		.loc 2 22 14 is_stmt 0 view .LVU975
 3579 000a C0F80834 		str	r3, [r0, #1032]
  23:include/circularBuffer.h **** }
 3580              		.loc 2 23 1 view .LVU976
 3581 000e 7047     		bx	lr
 3582              		.cfi_endproc
 3583              	.LFE3:
 3585              		.section	.text.circular_buffer_is_empty,"ax",%progbits
 3586              		.align	1
 3587              		.global	circular_buffer_is_empty
ARM GAS  /tmp/ccZiTkxd.s 			page 86


 3588              		.syntax unified
 3589              		.thumb
 3590              		.thumb_func
 3592              	circular_buffer_is_empty:
 3593              	.LVL71:
 3594              	.LFB4:
  24:include/circularBuffer.h **** 
  25:include/circularBuffer.h **** // Returns true if the buffer is empty
  26:include/circularBuffer.h **** int circular_buffer_is_empty(CircularBuffer *cb) {
 3595              		.loc 2 26 50 is_stmt 1 view -0
 3596              		.cfi_startproc
 3597              		@ args = 0, pretend = 0, frame = 0
 3598              		@ frame_needed = 0, uses_anonymous_args = 0
 3599              		@ link register save eliminated.
  27:include/circularBuffer.h ****     return !cb->full && cb->head == cb->tail;
 3600              		.loc 2 27 5 view .LVU978
 3601              		.loc 2 27 15 is_stmt 0 view .LVU979
 3602 0000 D0F80834 		ldr	r3, [r0, #1032]
 3603              		.loc 2 27 22 view .LVU980
 3604 0004 3BB9     		cbnz	r3, .L333
 3605              		.loc 2 27 27 discriminator 1 view .LVU981
 3606 0006 D0F80024 		ldr	r2, [r0, #1024]
 3607              		.loc 2 27 39 discriminator 1 view .LVU982
 3608 000a D0F80434 		ldr	r3, [r0, #1028]
 3609              		.loc 2 27 22 discriminator 1 view .LVU983
 3610 000e 9A42     		cmp	r2, r3
 3611 0010 03D0     		beq	.L334
 3612              		.loc 2 27 22 view .LVU984
 3613 0012 0020     		movs	r0, #0
 3614              	.LVL72:
 3615              		.loc 2 27 22 view .LVU985
 3616 0014 7047     		bx	lr
 3617              	.LVL73:
 3618              	.L333:
 3619              		.loc 2 27 22 view .LVU986
 3620 0016 0020     		movs	r0, #0
 3621              	.LVL74:
 3622              		.loc 2 27 22 view .LVU987
 3623 0018 7047     		bx	lr
 3624              	.LVL75:
 3625              	.L334:
 3626              		.loc 2 27 22 view .LVU988
 3627 001a 0120     		movs	r0, #1
 3628              	.LVL76:
  28:include/circularBuffer.h **** }
 3629              		.loc 2 28 1 view .LVU989
 3630 001c 7047     		bx	lr
 3631              		.cfi_endproc
 3632              	.LFE4:
 3634              		.section	.text.circular_buffer_is_full,"ax",%progbits
 3635              		.align	1
 3636              		.global	circular_buffer_is_full
 3637              		.syntax unified
 3638              		.thumb
 3639              		.thumb_func
 3641              	circular_buffer_is_full:
 3642              	.LVL77:
ARM GAS  /tmp/ccZiTkxd.s 			page 87


 3643              	.LFB5:
  29:include/circularBuffer.h **** 
  30:include/circularBuffer.h **** // Returns true if the buffer is full
  31:include/circularBuffer.h **** int circular_buffer_is_full(CircularBuffer *cb) {
 3644              		.loc 2 31 49 is_stmt 1 view -0
 3645              		.cfi_startproc
 3646              		@ args = 0, pretend = 0, frame = 0
 3647              		@ frame_needed = 0, uses_anonymous_args = 0
 3648              		@ link register save eliminated.
  32:include/circularBuffer.h ****     return cb->full;
 3649              		.loc 2 32 5 view .LVU991
  33:include/circularBuffer.h **** }
 3650              		.loc 2 33 1 is_stmt 0 view .LVU992
 3651 0000 D0F80804 		ldr	r0, [r0, #1032]
 3652              	.LVL78:
 3653              		.loc 2 33 1 view .LVU993
 3654 0004 7047     		bx	lr
 3655              		.cfi_endproc
 3656              	.LFE5:
 3658              		.section	.text.circular_buffer_size,"ax",%progbits
 3659              		.align	1
 3660              		.global	circular_buffer_size
 3661              		.syntax unified
 3662              		.thumb
 3663              		.thumb_func
 3665              	circular_buffer_size:
 3666              	.LVL79:
 3667              	.LFB6:
  34:include/circularBuffer.h **** 
  35:include/circularBuffer.h **** // Returns the buffer size
  36:include/circularBuffer.h **** int circular_buffer_size(CircularBuffer *cb) {
 3668              		.loc 2 36 46 is_stmt 1 view -0
 3669              		.cfi_startproc
 3670              		@ args = 0, pretend = 0, frame = 0
 3671              		@ frame_needed = 0, uses_anonymous_args = 0
 3672              		@ link register save eliminated.
  37:include/circularBuffer.h ****     if (cb->full) {
 3673              		.loc 2 37 5 view .LVU995
 3674              		.loc 2 37 11 is_stmt 0 view .LVU996
 3675 0000 D0F80834 		ldr	r3, [r0, #1032]
 3676              		.loc 2 37 8 view .LVU997
 3677 0004 63B9     		cbnz	r3, .L338
  38:include/circularBuffer.h ****         return BUFFER_SIZE;
  39:include/circularBuffer.h ****     } else {
  40:include/circularBuffer.h ****         return (cb->tail - cb->head + BUFFER_SIZE) % BUFFER_SIZE;
 3678              		.loc 2 40 9 is_stmt 1 view .LVU998
 3679              		.loc 2 40 19 is_stmt 0 view .LVU999
 3680 0006 D0F80434 		ldr	r3, [r0, #1028]
 3681              		.loc 2 40 30 view .LVU1000
 3682 000a D0F80004 		ldr	r0, [r0, #1024]
 3683              	.LVL80:
 3684              		.loc 2 40 26 view .LVU1001
 3685 000e 181A     		subs	r0, r3, r0
 3686              		.loc 2 40 37 view .LVU1002
 3687 0010 00F58070 		add	r0, r0, #256
 3688              		.loc 2 40 52 view .LVU1003
 3689 0014 4342     		rsbs	r3, r0, #0
ARM GAS  /tmp/ccZiTkxd.s 			page 88


 3690 0016 C0B2     		uxtb	r0, r0
 3691 0018 DBB2     		uxtb	r3, r3
 3692 001a 58BF     		it	pl
 3693 001c 5842     		rsbpl	r0, r3, #0
 3694 001e 7047     		bx	lr
 3695              	.LVL81:
 3696              	.L338:
  38:include/circularBuffer.h ****         return BUFFER_SIZE;
 3697              		.loc 2 38 16 view .LVU1004
 3698 0020 4FF48070 		mov	r0, #256
 3699              	.LVL82:
  41:include/circularBuffer.h ****     }
  42:include/circularBuffer.h **** }
 3700              		.loc 2 42 1 view .LVU1005
 3701 0024 7047     		bx	lr
 3702              		.cfi_endproc
 3703              	.LFE6:
 3705              		.section	.text.circular_buffer_write,"ax",%progbits
 3706              		.align	1
 3707              		.global	circular_buffer_write
 3708              		.syntax unified
 3709              		.thumb
 3710              		.thumb_func
 3712              	circular_buffer_write:
 3713              	.LVL83:
 3714              	.LFB7:
  43:include/circularBuffer.h **** 
  44:include/circularBuffer.h **** // Writes a value into the buffer and updates locations
  45:include/circularBuffer.h **** void circular_buffer_write(CircularBuffer *cb, int value) {
 3715              		.loc 2 45 59 is_stmt 1 view -0
 3716              		.cfi_startproc
 3717              		@ args = 0, pretend = 0, frame = 0
 3718              		@ frame_needed = 0, uses_anonymous_args = 0
 3719              		.loc 2 45 59 is_stmt 0 view .LVU1007
 3720 0000 38B5     		push	{r3, r4, r5, lr}
 3721              	.LCFI6:
 3722              		.cfi_def_cfa_offset 16
 3723              		.cfi_offset 3, -16
 3724              		.cfi_offset 4, -12
 3725              		.cfi_offset 5, -8
 3726              		.cfi_offset 14, -4
 3727 0002 0546     		mov	r5, r0
  46:include/circularBuffer.h ****     cb->buffer[cb->tail] = value;
 3728              		.loc 2 46 5 is_stmt 1 view .LVU1008
 3729              		.loc 2 46 18 is_stmt 0 view .LVU1009
 3730 0004 D0F80444 		ldr	r4, [r0, #1028]
 3731              		.loc 2 46 26 view .LVU1010
 3732 0008 40F82410 		str	r1, [r0, r4, lsl #2]
  47:include/circularBuffer.h ****     if (circular_buffer_is_full(cb)) {
 3733              		.loc 2 47 5 is_stmt 1 view .LVU1011
 3734              		.loc 2 47 9 is_stmt 0 view .LVU1012
 3735 000c FFF7FEFF 		bl	circular_buffer_is_full
 3736              	.LVL84:
 3737              		.loc 2 47 8 view .LVU1013
 3738 0010 48B1     		cbz	r0, .L340
  48:include/circularBuffer.h ****         cb->head = (cb->head + 1) % BUFFER_SIZE;
 3739              		.loc 2 48 9 is_stmt 1 view .LVU1014
ARM GAS  /tmp/ccZiTkxd.s 			page 89


 3740              		.loc 2 48 23 is_stmt 0 view .LVU1015
 3741 0012 D5F80034 		ldr	r3, [r5, #1024]
 3742              		.loc 2 48 30 view .LVU1016
 3743 0016 0133     		adds	r3, r3, #1
 3744              		.loc 2 48 35 view .LVU1017
 3745 0018 5A42     		rsbs	r2, r3, #0
 3746 001a DBB2     		uxtb	r3, r3
 3747 001c D2B2     		uxtb	r2, r2
 3748 001e 58BF     		it	pl
 3749 0020 5342     		rsbpl	r3, r2, #0
 3750              		.loc 2 48 18 view .LVU1018
 3751 0022 C5F80034 		str	r3, [r5, #1024]
 3752              	.L340:
  49:include/circularBuffer.h ****     }
  50:include/circularBuffer.h ****     cb->tail = (cb->tail + 1) % BUFFER_SIZE;
 3753              		.loc 2 50 5 is_stmt 1 view .LVU1019
 3754              		.loc 2 50 26 is_stmt 0 view .LVU1020
 3755 0026 631C     		adds	r3, r4, #1
 3756              		.loc 2 50 31 view .LVU1021
 3757 0028 5A42     		rsbs	r2, r3, #0
 3758 002a DBB2     		uxtb	r3, r3
 3759 002c D2B2     		uxtb	r2, r2
 3760 002e 58BF     		it	pl
 3761 0030 5342     		rsbpl	r3, r2, #0
 3762              		.loc 2 50 14 view .LVU1022
 3763 0032 C5F80434 		str	r3, [r5, #1028]
  51:include/circularBuffer.h ****     cb->full = cb->tail == cb->head;
 3764              		.loc 2 51 5 is_stmt 1 view .LVU1023
 3765              		.loc 2 51 30 is_stmt 0 view .LVU1024
 3766 0036 D5F80024 		ldr	r2, [r5, #1024]
 3767              		.loc 2 51 25 view .LVU1025
 3768 003a 9342     		cmp	r3, r2
 3769 003c 14BF     		ite	ne
 3770 003e 0023     		movne	r3, #0
 3771 0040 0123     		moveq	r3, #1
 3772              		.loc 2 51 14 view .LVU1026
 3773 0042 C5F80834 		str	r3, [r5, #1032]
  52:include/circularBuffer.h **** }
 3774              		.loc 2 52 1 view .LVU1027
 3775 0046 38BD     		pop	{r3, r4, r5, pc}
 3776              		.loc 2 52 1 view .LVU1028
 3777              		.cfi_endproc
 3778              	.LFE7:
 3780              		.section	.text.circular_buffer_read,"ax",%progbits
 3781              		.align	1
 3782              		.global	circular_buffer_read
 3783              		.syntax unified
 3784              		.thumb
 3785              		.thumb_func
 3787              	circular_buffer_read:
 3788              	.LVL85:
 3789              	.LFB8:
  53:include/circularBuffer.h **** 
  54:include/circularBuffer.h **** // Reads from the buffer
  55:include/circularBuffer.h **** int circular_buffer_read(CircularBuffer *cb) {
 3790              		.loc 2 55 46 is_stmt 1 view -0
 3791              		.cfi_startproc
ARM GAS  /tmp/ccZiTkxd.s 			page 90


 3792              		@ args = 0, pretend = 0, frame = 0
 3793              		@ frame_needed = 0, uses_anonymous_args = 0
 3794              		@ link register save eliminated.
 3795              		.loc 2 55 46 is_stmt 0 view .LVU1030
 3796 0000 0246     		mov	r2, r0
  56:include/circularBuffer.h ****     int value = cb->buffer[cb->head];
 3797              		.loc 2 56 5 is_stmt 1 view .LVU1031
 3798              		.loc 2 56 30 is_stmt 0 view .LVU1032
 3799 0002 D0F80034 		ldr	r3, [r0, #1024]
 3800              		.loc 2 56 9 view .LVU1033
 3801 0006 50F82300 		ldr	r0, [r0, r3, lsl #2]
 3802              	.LVL86:
  57:include/circularBuffer.h ****     cb->full = 0;
 3803              		.loc 2 57 5 is_stmt 1 view .LVU1034
 3804              		.loc 2 57 14 is_stmt 0 view .LVU1035
 3805 000a 0021     		movs	r1, #0
 3806 000c C2F80814 		str	r1, [r2, #1032]
  58:include/circularBuffer.h ****     cb->head = (cb->head + 1) % BUFFER_SIZE;
 3807              		.loc 2 58 5 is_stmt 1 view .LVU1036
 3808              		.loc 2 58 26 is_stmt 0 view .LVU1037
 3809 0010 0133     		adds	r3, r3, #1
 3810              		.loc 2 58 31 view .LVU1038
 3811 0012 C91A     		subs	r1, r1, r3
 3812 0014 DBB2     		uxtb	r3, r3
 3813 0016 C9B2     		uxtb	r1, r1
 3814 0018 58BF     		it	pl
 3815 001a 4B42     		rsbpl	r3, r1, #0
 3816              		.loc 2 58 14 view .LVU1039
 3817 001c C2F80034 		str	r3, [r2, #1024]
  59:include/circularBuffer.h ****     return value;
 3818              		.loc 2 59 5 is_stmt 1 view .LVU1040
  60:include/circularBuffer.h **** }
 3819              		.loc 2 60 1 is_stmt 0 view .LVU1041
 3820 0020 7047     		bx	lr
 3821              		.cfi_endproc
 3822              	.LFE8:
 3824              		.section	.text.circular_buffer_read_array,"ax",%progbits
 3825              		.align	1
 3826              		.global	circular_buffer_read_array
 3827              		.syntax unified
 3828              		.thumb
 3829              		.thumb_func
 3831              	circular_buffer_read_array:
 3832              	.LVL87:
 3833              	.LFB9:
  61:include/circularBuffer.h **** 
  62:include/circularBuffer.h **** int circular_buffer_read_array(CircularBuffer *cb, uint8_t size){
 3834              		.loc 2 62 65 is_stmt 1 view -0
 3835              		.cfi_startproc
 3836              		@ args = 0, pretend = 0, frame = 0
 3837              		@ frame_needed = 0, uses_anonymous_args = 0
 3838              		.loc 2 62 65 is_stmt 0 view .LVU1043
 3839 0000 70B5     		push	{r4, r5, r6, lr}
 3840              	.LCFI7:
 3841              		.cfi_def_cfa_offset 16
 3842              		.cfi_offset 4, -16
 3843              		.cfi_offset 5, -12
ARM GAS  /tmp/ccZiTkxd.s 			page 91


 3844              		.cfi_offset 6, -8
 3845              		.cfi_offset 14, -4
 3846 0002 0646     		mov	r6, r0
 3847 0004 0D46     		mov	r5, r1
  63:include/circularBuffer.h ****     uint8_t i;
 3848              		.loc 2 63 5 is_stmt 1 view .LVU1044
  64:include/circularBuffer.h ****     for(i = 0; i < size; i++){
 3849              		.loc 2 64 5 view .LVU1045
 3850              	.LVL88:
 3851              		.loc 2 64 11 is_stmt 0 view .LVU1046
 3852 0006 0024     		movs	r4, #0
 3853              		.loc 2 64 5 view .LVU1047
 3854 0008 04E0     		b	.L344
 3855              	.LVL89:
 3856              	.L345:
  65:include/circularBuffer.h ****         circular_buffer_read(cb);
 3857              		.loc 2 65 9 is_stmt 1 discriminator 3 view .LVU1048
 3858 000a 3046     		mov	r0, r6
 3859 000c FFF7FEFF 		bl	circular_buffer_read
 3860              	.LVL90:
  64:include/circularBuffer.h ****     for(i = 0; i < size; i++){
 3861              		.loc 2 64 26 discriminator 3 view .LVU1049
  64:include/circularBuffer.h ****     for(i = 0; i < size; i++){
 3862              		.loc 2 64 27 is_stmt 0 discriminator 3 view .LVU1050
 3863 0010 0134     		adds	r4, r4, #1
 3864              	.LVL91:
  64:include/circularBuffer.h ****     for(i = 0; i < size; i++){
 3865              		.loc 2 64 27 discriminator 3 view .LVU1051
 3866 0012 E4B2     		uxtb	r4, r4
 3867              	.LVL92:
 3868              	.L344:
  64:include/circularBuffer.h ****     for(i = 0; i < size; i++){
 3869              		.loc 2 64 16 is_stmt 1 discriminator 1 view .LVU1052
  64:include/circularBuffer.h ****     for(i = 0; i < size; i++){
 3870              		.loc 2 64 5 is_stmt 0 discriminator 1 view .LVU1053
 3871 0014 AC42     		cmp	r4, r5
 3872 0016 F8D3     		bcc	.L345
  66:include/circularBuffer.h ****     }
  67:include/circularBuffer.h **** }
 3873              		.loc 2 67 1 view .LVU1054
 3874 0018 70BD     		pop	{r4, r5, r6, pc}
 3875              		.loc 2 67 1 view .LVU1055
 3876              		.cfi_endproc
 3877              	.LFE9:
 3879              		.section	.text.__user_init_hw,"ax",%progbits
 3880              		.align	1
 3881              		.global	__user_init_hw
 3882              		.syntax unified
 3883              		.thumb
 3884              		.thumb_func
 3886              	__user_init_hw:
 3887              	.LFB17:
 398:src/m5_app.c  **** 
 399:src/m5_app.c  **** 
 400:src/m5_app.c  **** /************************************************************************
 401:src/m5_app.c  ****  * User supplied functions
 402:src/m5_app.c  ****  ************************************************************************
ARM GAS  /tmp/ccZiTkxd.s 			page 92


 403:src/m5_app.c  ****  */
 404:src/m5_app.c  **** void __user_init_hw(void) {
